   1               		.file	"TWI_Slave.c"
   2               	__SREG__ = 0x3f
   3               	__SP_H__ = 0x3e
   4               	__SP_L__ = 0x3d
   5               	__CCP__  = 0x34
   6               	__tmp_reg__ = 0
   7               	__zero_reg__ = 1
  15               	.Ltext0:
  16               		.section	.text.lcddelay_ms,"ax",@progbits
  17               	.global	lcddelay_ms
  19               	lcddelay_ms:
  20               	.LFB6:
  21               	.LSM0:
  22               	.LVL0:
  23               	/* prologue: function */
  24               	/* frame size = 0 */
  25               	.LBB220:
  26               	.LBB221:
  27               	.LBB222:
  28               	.LBB223:
  29               	.LSM1:
  30 0000 20E0      		ldi r18,lo8(3840)
  31 0002 3FE0      		ldi r19,hi8(3840)
  32 0004 00C0      		rjmp .L2
  33               	.LVL1:
  34               	.L3:
  35 0006 F901      		movw r30,r18
  36               	/* #APP */
  37               	 ;  105 "/usr/local/CrossPack-AVR-20100115/lib/gcc/avr/4.3.3/../../../../avr/include/util/delay_bas
  38 0008 3197      		1: sbiw r30,1
  39 000a 01F4      		brne 1b
  40               	 ;  0 "" 2
  41               	/* #NOAPP */
  42               	.LBE223:
  43               	.LBE222:
  44               	.LBE221:
  45               	.LBE220:
  46               	.LSM2:
  47 000c 0197      		sbiw r24,1
  48               	.L2:
  49               	.LSM3:
  50 000e 0097      		sbiw r24,0
  51 0010 01F4      		brne .L3
  52               	/* epilogue start */
  53               	.LSM4:
  54 0012 0895      		ret
  55               	.LFE6:
  57               		.section	.text.lcd_backlight,"ax",@progbits
  58               	.global	lcd_backlight
  60               	lcd_backlight:
  61               	.LFB7:
  62               	.LSM5:
  63               	.LVL2:
  64               	/* prologue: function */
  65               	/* frame size = 0 */
  66               	.LSM6:
  67 0000 892B      		or r24,r25
  68 0002 01F0      		breq .L6
  69               	.LSM7:
  70 0004 8F9A      		sbi 49-32,7
  71 0006 0895      		ret
  72               	.L6:
  73               	.LSM8:
  74 0008 8F98      		cbi 49-32,7
  75 000a 0895      		ret
  76               	.LFE7:
  78               		.section	.text.lcd_load_byte,"ax",@progbits
  79               	.global	lcd_load_byte
  81               	lcd_load_byte:
  82               	.LFB9:
  83               	.LSM9:
  84               	.LVL3:
  85               	/* prologue: function */
  86               	/* frame size = 0 */
  87               	.LSM10:
  88 0000 8F98      		cbi 49-32,7
  89 0002 20E0      		ldi r18,lo8(0)
  90 0004 30E0      		ldi r19,hi8(0)
  91               	.LVL4:
  92               	.LBB224:
  93               	.LBB225:
  94               	.LBB226:
  95               	.LBB227:
  96               	.LSM11:
  97 0006 4AE6      		ldi r20,lo8(106)
  98               	.LVL5:
  99               	.L13:
 100               	.LBE227:
 101               	.LBE226:
 102               	.LBE225:
 103               	.LBE224:
 104               	.LSM12:
 105 0008 87FF      		sbrs r24,7
 106 000a 00C0      		rjmp .L10
 107               	.LSM13:
 108 000c 8D9A      		sbi 49-32,5
 109 000e 00C0      		rjmp .L11
 110               	.L10:
 111               	.LSM14:
 112 0010 8D98      		cbi 49-32,5
 113               	.L11:
 114               	.LSM15:
 115 0012 8F9A      		sbi 49-32,7
 116               	.LBB231:
 117               	.LBB230:
 118               	.LBB229:
 119               	.LBB228:
 120               	.LSM16:
 121 0014 942F      		mov r25,r20
 122               	/* #APP */
 123               	 ;  83 "/usr/local/CrossPack-AVR-20100115/lib/gcc/avr/4.3.3/../../../../avr/include/util/delay_basi
 124 0016 9A95      		1: dec r25
 125 0018 01F4      		brne 1b
 126               	 ;  0 "" 2
 127               	/* #NOAPP */
 128               	.LBE228:
 129               	.LBE229:
 130               	.LBE230:
 131               	.LBE231:
 132               	.LSM17:
 133 001a 8F98      		cbi 49-32,7
 134               	.LSM18:
 135 001c 2F5F      		subi r18,lo8(-(1))
 136 001e 3F4F      		sbci r19,hi8(-(1))
 137 0020 2830      		cpi r18,8
 138 0022 3105      		cpc r19,__zero_reg__
 139 0024 01F0      		breq .L14
 140               	.LSM19:
 141 0026 880F      		lsl r24
 142               	.LVL6:
 143 0028 00C0      		rjmp .L13
 144               	.L14:
 145 002a 0895      		ret
 146               	.LFE9:
 148               		.section	.text.lcd_send_cmd,"ax",@progbits
 149               	.global	lcd_send_cmd
 151               	lcd_send_cmd:
 152               	.LFB10:
 153               	.LSM20:
 154               	/* prologue: function */
 155               	/* frame size = 0 */
 156               	.LSM21:
 157 0000 8D98      		cbi 49-32,5
 158               	.LBB232:
 159               	.LBB233:
 160               	.LSM22:
 161 0002 8E9A      		sbi 49-32,6
 162               	.LBB234:
 163               	.LBB235:
 164               	.LBB236:
 165               	.LBB237:
 166               	.LBB238:
 167               	.LBB239:
 168               	.LSM23:
 169 0004 88E0      		ldi r24,lo8(1800)
 170 0006 97E0      		ldi r25,hi8(1800)
 171               	.LVL7:
 172               	/* #APP */
 173               	 ;  105 "/usr/local/CrossPack-AVR-20100115/lib/gcc/avr/4.3.3/../../../../avr/include/util/delay_bas
 174 0008 0197      		1: sbiw r24,1
 175 000a 01F4      		brne 1b
 176               	 ;  0 "" 2
 177               	/* #NOAPP */
 178               	.LBE239:
 179               	.LBE238:
 180               	.LBE237:
 181               	.LBE236:
 182               	.LBE235:
 183               	.LBE234:
 184               	.LSM24:
 185 000c 8E98      		cbi 49-32,6
 186               	.LBE233:
 187               	.LBE232:
 188               	.LBB240:
 189               	.LBB241:
 190               	.LBB242:
 191               	.LBB243:
 192               	.LBB244:
 193               	.LBB245:
 194               	.LSM25:
 195 000e 88EC      		ldi r24,lo8(200)
 196 0010 90E0      		ldi r25,hi8(200)
 197               	.LVL8:
 198               	/* #APP */
 199               	 ;  105 "/usr/local/CrossPack-AVR-20100115/lib/gcc/avr/4.3.3/../../../../avr/include/util/delay_bas
 200 0012 0197      		1: sbiw r24,1
 201 0014 01F4      		brne 1b
 202               	 ;  0 "" 2
 203               	/* epilogue start */
 204               	/* #NOAPP */
 205               	.LBE245:
 206               	.LBE244:
 207               	.LBE243:
 208               	.LBE242:
 209               	.LBE241:
 210               	.LBE240:
 211               	.LSM26:
 212 0016 0895      		ret
 213               	.LFE10:
 215               		.section	.text.lcd_initialize,"ax",@progbits
 216               	.global	lcd_initialize
 218               	lcd_initialize:
 219               	.LFB8:
 220               	.LSM27:
 221               	.LVL9:
 222 0000 EF92      		push r14
 223 0002 FF92      		push r15
 224 0004 0F93      		push r16
 225 0006 1F93      		push r17
 226               	/* prologue: function */
 227               	/* frame size = 0 */
 228 0008 082F      		mov r16,r24
 229 000a F62E      		mov r15,r22
 230 000c E42E      		mov r14,r20
 231               	.LSM28:
 232 000e 8CE2      		ldi r24,lo8(300)
 233 0010 91E0      		ldi r25,hi8(300)
 234               	.LVL10:
 235               	.LBB246:
 236               	.LBB247:
 237               	.LBB248:
 238               	.LBB249:
 239               	.LSM29:
 240 0012 20E9      		ldi r18,lo8(400)
 241 0014 31E0      		ldi r19,hi8(400)
 242               	.LVL11:
 243               	.L18:
 244 0016 F901      		movw r30,r18
 245               	.LVL12:
 246               	/* #APP */
 247               	 ;  105 "/usr/local/CrossPack-AVR-20100115/lib/gcc/avr/4.3.3/../../../../avr/include/util/delay_bas
 248 0018 3197      		1: sbiw r30,1
 249 001a 01F4      		brne 1b
 250               	 ;  0 "" 2
 251               	/* #NOAPP */
 252               	.LBE249:
 253               	.LBE248:
 254               	.LSM30:
 255 001c 0197      		sbiw r24,1
 256               	.LSM31:
 257 001e 01F4      		brne .L18
 258               	.LBE247:
 259               	.LBE246:
 260               	.LSM32:
 261 0020 80E3      		ldi r24,lo8(48)
 262               	.LVL13:
 263 0022 0E94 0000 		call lcd_load_byte
 264               	.LVL14:
 265               	.LSM33:
 266 0026 0E94 0000 		call lcd_send_cmd
 267               	.LBB250:
 268               	.LBB251:
 269               	.LBB252:
 270               	.LBB253:
 271               	.LSM34:
 272 002a 80E4      		ldi r24,lo8(-25536)
 273 002c 9CE9      		ldi r25,hi8(-25536)
 274               	.LVL15:
 275               	/* #APP */
 276               	 ;  105 "/usr/local/CrossPack-AVR-20100115/lib/gcc/avr/4.3.3/../../../../avr/include/util/delay_bas
 277 002e 0197      		1: sbiw r24,1
 278 0030 01F4      		brne 1b
 279               	 ;  0 "" 2
 280               	/* #NOAPP */
 281               	.LBE253:
 282               	.LBE252:
 283               	.LBE251:
 284               	.LBE250:
 285               	.LSM35:
 286 0032 80E3      		ldi r24,lo8(48)
 287               	.LVL16:
 288 0034 0E94 0000 		call lcd_load_byte
 289               	.LSM36:
 290 0038 0E94 0000 		call lcd_send_cmd
 291               	.LBB254:
 292               	.LBB255:
 293               	.LBB256:
 294               	.LBB257:
 295               	.LSM37:
 296 003c 8AE6      		ldi r24,lo8(106)
 297               	.LVL17:
 298               	/* #APP */
 299               	 ;  83 "/usr/local/CrossPack-AVR-20100115/lib/gcc/avr/4.3.3/../../../../avr/include/util/delay_basi
 300 003e 8A95      		1: dec r24
 301 0040 01F4      		brne 1b
 302               	 ;  0 "" 2
 303               	/* #NOAPP */
 304               	.LBE257:
 305               	.LBE256:
 306               	.LBE255:
 307               	.LBE254:
 308               	.LSM38:
 309 0042 80E3      		ldi r24,lo8(48)
 310               	.LVL18:
 311 0044 0E94 0000 		call lcd_load_byte
 312               	.LSM39:
 313 0048 0E94 0000 		call lcd_send_cmd
 314               	.LBB258:
 315               	.LBB259:
 316               	.LBB260:
 317               	.LBB261:
 318               	.LBB262:
 319               	.LBB263:
 320               	.LSM40:
 321 004c 80E8      		ldi r24,lo8(640)
 322 004e 92E0      		ldi r25,hi8(640)
 323               	.LVL19:
 324               	/* #APP */
 325               	 ;  105 "/usr/local/CrossPack-AVR-20100115/lib/gcc/avr/4.3.3/../../../../avr/include/util/delay_bas
 326 0050 0197      		1: sbiw r24,1
 327 0052 01F4      		brne 1b
 328               	 ;  0 "" 2
 329               	/* #NOAPP */
 330               	.LBE263:
 331               	.LBE262:
 332               	.LBE261:
 333               	.LBE260:
 334               	.LBE259:
 335               	.LBE258:
 336               	.LSM41:
 337 0054 802F      		mov r24,r16
 338               	.LVL20:
 339 0056 0E94 0000 		call lcd_load_byte
 340               	.LSM42:
 341 005a 0E94 0000 		call lcd_send_cmd
 342               	.LSM43:
 343 005e 88E0      		ldi r24,lo8(8)
 344 0060 0E94 0000 		call lcd_load_byte
 345               	.LSM44:
 346 0064 0E94 0000 		call lcd_send_cmd
 347               	.LSM45:
 348 0068 81E0      		ldi r24,lo8(1)
 349 006a 0E94 0000 		call lcd_load_byte
 350               	.LSM46:
 351 006e 0E94 0000 		call lcd_send_cmd
 352               	.LBB264:
 353               	.LBB265:
 354               	.LBB266:
 355               	.LBB267:
 356               	.LSM47:
 357 0072 00E8      		ldi r16,lo8(16000)
 358 0074 1EE3      		ldi r17,hi8(16000)
 359               	.LVL21:
 360 0076 C801      		movw r24,r16
 361               	.LVL22:
 362               	/* #APP */
 363               	 ;  105 "/usr/local/CrossPack-AVR-20100115/lib/gcc/avr/4.3.3/../../../../avr/include/util/delay_bas
 364 0078 0197      		1: sbiw r24,1
 365 007a 01F4      		brne 1b
 366               	 ;  0 "" 2
 367               	/* #NOAPP */
 368               	.LBE267:
 369               	.LBE266:
 370               	.LBE265:
 371               	.LBE264:
 372               	.LSM48:
 373 007c 8F2D      		mov r24,r15
 374               	.LVL23:
 375 007e 0E94 0000 		call lcd_load_byte
 376               	.LSM49:
 377 0082 0E94 0000 		call lcd_send_cmd
 378               	.LBB268:
 379               	.LBB269:
 380               	.LBB270:
 381               	.LBB271:
 382               	.LSM50:
 383 0086 C801      		movw r24,r16
 384               	.LVL24:
 385               	/* #APP */
 386               	 ;  105 "/usr/local/CrossPack-AVR-20100115/lib/gcc/avr/4.3.3/../../../../avr/include/util/delay_bas
 387 0088 0197      		1: sbiw r24,1
 388 008a 01F4      		brne 1b
 389               	 ;  0 "" 2
 390               	/* #NOAPP */
 391               	.LBE271:
 392               	.LBE270:
 393               	.LBE269:
 394               	.LBE268:
 395               	.LSM51:
 396 008c 8E2D      		mov r24,r14
 397               	.LVL25:
 398 008e 0E94 0000 		call lcd_load_byte
 399               	.LSM52:
 400 0092 0E94 0000 		call lcd_send_cmd
 401 0096 80E9      		ldi r24,lo8(400)
 402 0098 91E0      		ldi r25,hi8(400)
 403               	.LVL26:
 404               	.LBB272:
 405               	.LBB273:
 406               	.LBB274:
 407               	.LBB275:
 408               	.LSM53:
 409 009a 20E9      		ldi r18,lo8(400)
 410 009c 31E0      		ldi r19,hi8(400)
 411               	.L19:
 412 009e F901      		movw r30,r18
 413               	.LVL27:
 414               	/* #APP */
 415               	 ;  105 "/usr/local/CrossPack-AVR-20100115/lib/gcc/avr/4.3.3/../../../../avr/include/util/delay_bas
 416 00a0 3197      		1: sbiw r30,1
 417 00a2 01F4      		brne 1b
 418               	 ;  0 "" 2
 419               	/* #NOAPP */
 420               	.LBE275:
 421               	.LBE274:
 422               	.LSM54:
 423 00a4 0197      		sbiw r24,1
 424               	.LSM55:
 425 00a6 01F4      		brne .L19
 426               	/* epilogue start */
 427               	.LBE273:
 428               	.LBE272:
 429               	.LSM56:
 430 00a8 1F91      		pop r17
 431 00aa 0F91      		pop r16
 432 00ac FF90      		pop r15
 433               	.LVL28:
 434 00ae EF90      		pop r14
 435               	.LVL29:
 436 00b0 0895      		ret
 437               	.LFE8:
 439               		.section	.text.lcd_send_char,"ax",@progbits
 440               	.global	lcd_send_char
 442               	lcd_send_char:
 443               	.LFB11:
 444               	.LSM57:
 445               	/* prologue: function */
 446               	/* frame size = 0 */
 447               	.LSM58:
 448 0000 8D9A      		sbi 49-32,5
 449               	.LBB276:
 450               	.LBB277:
 451               	.LSM59:
 452 0002 8E9A      		sbi 49-32,6
 453               	.LBB278:
 454               	.LBB279:
 455               	.LBB280:
 456               	.LBB281:
 457               	.LBB282:
 458               	.LBB283:
 459               	.LSM60:
 460 0004 88E0      		ldi r24,lo8(1800)
 461 0006 97E0      		ldi r25,hi8(1800)
 462               	.LVL30:
 463               	/* #APP */
 464               	 ;  105 "/usr/local/CrossPack-AVR-20100115/lib/gcc/avr/4.3.3/../../../../avr/include/util/delay_bas
 465 0008 0197      		1: sbiw r24,1
 466 000a 01F4      		brne 1b
 467               	 ;  0 "" 2
 468               	/* #NOAPP */
 469               	.LBE283:
 470               	.LBE282:
 471               	.LBE281:
 472               	.LBE280:
 473               	.LBE279:
 474               	.LBE278:
 475               	.LSM61:
 476 000c 8E98      		cbi 49-32,6
 477               	.LBE277:
 478               	.LBE276:
 479               	.LBB284:
 480               	.LBB285:
 481               	.LBB286:
 482               	.LBB287:
 483               	.LBB288:
 484               	.LBB289:
 485               	.LSM62:
 486 000e 88EC      		ldi r24,lo8(200)
 487 0010 90E0      		ldi r25,hi8(200)
 488               	.LVL31:
 489               	/* #APP */
 490               	 ;  105 "/usr/local/CrossPack-AVR-20100115/lib/gcc/avr/4.3.3/../../../../avr/include/util/delay_bas
 491 0012 0197      		1: sbiw r24,1
 492 0014 01F4      		brne 1b
 493               	 ;  0 "" 2
 494               	/* epilogue start */
 495               	/* #NOAPP */
 496               	.LBE289:
 497               	.LBE288:
 498               	.LBE287:
 499               	.LBE286:
 500               	.LBE285:
 501               	.LBE284:
 502               	.LSM63:
 503 0016 0895      		ret
 504               	.LFE11:
 506               		.section	.text.lcd_putc,"ax",@progbits
 507               	.global	lcd_putc
 509               	lcd_putc:
 510               	.LFB12:
 511               	.LSM64:
 512               	.LVL32:
 513               	/* prologue: function */
 514               	/* frame size = 0 */
 515               	.LSM65:
 516 0000 0E94 0000 		call lcd_load_byte
 517               	.LVL33:
 518               	.LSM66:
 519 0004 0E94 0000 		call lcd_send_char
 520               	/* epilogue start */
 521               	.LSM67:
 522 0008 0895      		ret
 523               	.LFE12:
 525               		.section	.text.lcd_puts,"ax",@progbits
 526               	.global	lcd_puts
 528               	lcd_puts:
 529               	.LFB17:
 530               	.LSM68:
 531               	.LVL34:
 532 0000 CF93      		push r28
 533 0002 DF93      		push r29
 534               	/* prologue: function */
 535               	/* frame size = 0 */
 536 0004 EC01      		movw r28,r24
 537 0006 00C0      		rjmp .L28
 538               	.LVL35:
 539               	.L29:
 540               	.LSM69:
 541 0008 0E94 0000 		call lcd_putc
 542               	.LVL36:
 543               	.L28:
 544               	.LSM70:
 545 000c 8991      		ld r24,Y+
 546               	.LVL37:
 547 000e 8823      		tst r24
 548 0010 01F4      		brne .L29
 549               	/* epilogue start */
 550               	.LSM71:
 551 0012 DF91      		pop r29
 552 0014 CF91      		pop r28
 553               	.LVL38:
 554 0016 0895      		ret
 555               	.LFE17:
 557               		.section	.text.lcd_putint1,"ax",@progbits
 558               	.global	lcd_putint1
 560               	lcd_putint1:
 561               	.LFB16:
 562               	.LSM72:
 563               	.LVL39:
 564 0000 DF93      		push r29
 565 0002 CF93      		push r28
 566 0004 00D0      		rcall .
 567 0006 CDB7      		in r28,__SP_L__
 568 0008 DEB7      		in r29,__SP_H__
 569               	/* prologue: function */
 570               	/* frame size = 2 */
 571               	.LSM73:
 572 000a 1A82      		std Y+2,__zero_reg__
 573               	.LSM74:
 574 000c 6AE0      		ldi r22,lo8(10)
 575 000e 0E94 0000 		call __udivmodqi4
 576               	.LVL40:
 577 0012 905D      		subi r25,lo8(-(48))
 578 0014 9983      		std Y+1,r25
 579               	.LSM75:
 580 0016 CE01      		movw r24,r28
 581 0018 0196      		adiw r24,1
 582 001a 0E94 0000 		call lcd_puts
 583               	/* epilogue start */
 584               	.LSM76:
 585 001e 0F90      		pop __tmp_reg__
 586 0020 0F90      		pop __tmp_reg__
 587 0022 CF91      		pop r28
 588 0024 DF91      		pop r29
 589 0026 0895      		ret
 590               	.LFE16:
 592               		.section	.text.lcd_putint2,"ax",@progbits
 593               	.global	lcd_putint2
 595               	lcd_putint2:
 596               	.LFB15:
 597               	.LSM77:
 598               	.LVL41:
 599 0000 DF93      		push r29
 600 0002 CF93      		push r28
 601 0004 00D0      		rcall .
 602 0006 0F92      		push __tmp_reg__
 603 0008 CDB7      		in r28,__SP_L__
 604 000a DEB7      		in r29,__SP_H__
 605               	/* prologue: function */
 606               	/* frame size = 3 */
 607               	.LSM78:
 608 000c 64E6      		ldi r22,lo8(100)
 609 000e 0E94 0000 		call __udivmodqi4
 610               	.LVL42:
 611 0012 292F      		mov r18,r25
 612               	.LSM79:
 613 0014 1B82      		std Y+3,__zero_reg__
 614               	.LSM80:
 615 0016 892F      		mov r24,r25
 616 0018 6AE0      		ldi r22,lo8(10)
 617 001a 0E94 0000 		call __udivmodqi4
 618 001e 905D      		subi r25,lo8(-(48))
 619 0020 9A83      		std Y+2,r25
 620 0022 822F      		mov r24,r18
 621 0024 0E94 0000 		call __udivmodqi4
 622 0028 0E94 0000 		call __udivmodqi4
 623 002c 905D      		subi r25,lo8(-(48))
 624 002e 9983      		std Y+1,r25
 625               	.LSM81:
 626 0030 CE01      		movw r24,r28
 627 0032 0196      		adiw r24,1
 628 0034 0E94 0000 		call lcd_puts
 629               	/* epilogue start */
 630               	.LSM82:
 631 0038 0F90      		pop __tmp_reg__
 632 003a 0F90      		pop __tmp_reg__
 633 003c 0F90      		pop __tmp_reg__
 634 003e CF91      		pop r28
 635 0040 DF91      		pop r29
 636 0042 0895      		ret
 637               	.LFE15:
 639               		.section	.text.lcd_putint16,"ax",@progbits
 640               	.global	lcd_putint16
 642               	lcd_putint16:
 643               	.LFB14:
 644               	.LSM83:
 645               	.LVL43:
 646 0000 DF93      		push r29
 647 0002 CF93      		push r28
 648 0004 CDB7      		in r28,__SP_L__
 649 0006 DEB7      		in r29,__SP_H__
 650 0008 2897      		sbiw r28,8
 651 000a 0FB6      		in __tmp_reg__,__SREG__
 652 000c F894      		cli
 653 000e DEBF      		out __SP_H__,r29
 654 0010 0FBE      		out __SREG__,__tmp_reg__
 655 0012 CDBF      		out __SP_L__,r28
 656               	/* prologue: function */
 657               	/* frame size = 8 */
 658 0014 382F      		mov r19,r24
 659 0016 292F      		mov r18,r25
 660               	.LVL44:
 661               	.LSM84:
 662 0018 1886      		std Y+8,__zero_reg__
 663 001a FE01      		movw r30,r28
 664 001c 3796      		adiw r30,7
 665               	.LVL45:
 666               	.L36:
 667               	.LSM85:
 668 001e 832F      		mov r24,r19
 669 0020 922F      		mov r25,r18
 670 0022 6AE0      		ldi r22,lo8(10)
 671 0024 70E0      		ldi r23,hi8(10)
 672 0026 0E94 0000 		call __udivmodhi4
 673 002a 805D      		subi r24,lo8(-(48))
 674 002c 8083      		st Z,r24
 675               	.LSM86:
 676 002e 832F      		mov r24,r19
 677 0030 922F      		mov r25,r18
 678 0032 6AE0      		ldi r22,lo8(10)
 679 0034 70E0      		ldi r23,hi8(10)
 680 0036 0E94 0000 		call __udivmodhi4
 681 003a 362F      		mov r19,r22
 682 003c 272F      		mov r18,r23
 683 003e 3197      		sbiw r30,1
 684               	.LSM87:
 685 0040 EC17      		cp r30,r28
 686 0042 FD07      		cpc r31,r29
 687 0044 01F4      		brne .L36
 688               	.LSM88:
 689 0046 CE01      		movw r24,r28
 690 0048 0196      		adiw r24,1
 691 004a 0E94 0000 		call lcd_puts
 692               	.LVL46:
 693               	/* epilogue start */
 694               	.LSM89:
 695 004e 2896      		adiw r28,8
 696 0050 0FB6      		in __tmp_reg__,__SREG__
 697 0052 F894      		cli
 698 0054 DEBF      		out __SP_H__,r29
 699 0056 0FBE      		out __SREG__,__tmp_reg__
 700 0058 CDBF      		out __SP_L__,r28
 701 005a CF91      		pop r28
 702 005c DF91      		pop r29
 703 005e 0895      		ret
 704               	.LFE14:
 706               		.section	.text.lcd_putint,"ax",@progbits
 707               	.global	lcd_putint
 709               	lcd_putint:
 710               	.LFB13:
 711               	.LSM90:
 712               	.LVL47:
 713 0000 DF93      		push r29
 714 0002 CF93      		push r28
 715 0004 00D0      		rcall .
 716 0006 00D0      		rcall .
 717 0008 CDB7      		in r28,__SP_L__
 718 000a DEB7      		in r29,__SP_H__
 719               	/* prologue: function */
 720               	/* frame size = 4 */
 721 000c 282F      		mov r18,r24
 722               	.LSM91:
 723 000e 1C82      		std Y+4,__zero_reg__
 724               	.LSM92:
 725 0010 6AE0      		ldi r22,lo8(10)
 726 0012 0E94 0000 		call __udivmodqi4
 727               	.LVL48:
 728 0016 905D      		subi r25,lo8(-(48))
 729 0018 9B83      		std Y+3,r25
 730               	.LSM93:
 731 001a 822F      		mov r24,r18
 732 001c 0E94 0000 		call __udivmodqi4
 733 0020 282F      		mov r18,r24
 734               	.LVL49:
 735               	.LSM94:
 736 0022 0E94 0000 		call __udivmodqi4
 737 0026 905D      		subi r25,lo8(-(48))
 738 0028 9A83      		std Y+2,r25
 739 002a 822F      		mov r24,r18
 740 002c 0E94 0000 		call __udivmodqi4
 741 0030 0E94 0000 		call __udivmodqi4
 742 0034 905D      		subi r25,lo8(-(48))
 743 0036 9983      		std Y+1,r25
 744               	.LSM95:
 745 0038 CE01      		movw r24,r28
 746 003a 0196      		adiw r24,1
 747 003c 0E94 0000 		call lcd_puts
 748               	/* epilogue start */
 749               	.LSM96:
 750 0040 0F90      		pop __tmp_reg__
 751 0042 0F90      		pop __tmp_reg__
 752 0044 0F90      		pop __tmp_reg__
 753 0046 0F90      		pop __tmp_reg__
 754 0048 CF91      		pop r28
 755 004a DF91      		pop r29
 756 004c 0895      		ret
 757               	.LFE13:
 759               		.section	.text.lcd_strobe_E,"ax",@progbits
 760               	.global	lcd_strobe_E
 762               	lcd_strobe_E:
 763               	.LFB18:
 764               	.LSM97:
 765               	/* prologue: function */
 766               	/* frame size = 0 */
 767               	.LSM98:
 768 0000 8E9A      		sbi 49-32,6
 769               	.LBB290:
 770               	.LBB291:
 771               	.LBB292:
 772               	.LBB293:
 773               	.LBB294:
 774               	.LBB295:
 775               	.LSM99:
 776 0002 88E0      		ldi r24,lo8(1800)
 777 0004 97E0      		ldi r25,hi8(1800)
 778               	.LVL50:
 779               	/* #APP */
 780               	 ;  105 "/usr/local/CrossPack-AVR-20100115/lib/gcc/avr/4.3.3/../../../../avr/include/util/delay_bas
 781 0006 0197      		1: sbiw r24,1
 782 0008 01F4      		brne 1b
 783               	 ;  0 "" 2
 784               	/* #NOAPP */
 785               	.LBE295:
 786               	.LBE294:
 787               	.LBE293:
 788               	.LBE292:
 789               	.LBE291:
 790               	.LBE290:
 791               	.LSM100:
 792 000a 8E98      		cbi 49-32,6
 793               	/* epilogue start */
 794               	.LSM101:
 795 000c 0895      		ret
 796               	.LFE18:
 798               		.section	.text.lcd_cursor_home,"ax",@progbits
 799               	.global	lcd_cursor_home
 801               	lcd_cursor_home:
 802               	.LFB19:
 803               	.LSM102:
 804               	/* prologue: function */
 805               	/* frame size = 0 */
 806               	.LSM103:
 807 0000 82E0      		ldi r24,lo8(2)
 808 0002 0E94 0000 		call lcd_load_byte
 809               	.LSM104:
 810 0006 0E94 0000 		call lcd_send_cmd
 811               	/* epilogue start */
 812               	.LSM105:
 813 000a 0895      		ret
 814               	.LFE19:
 816               		.section	.text.lcd_move_cursor,"ax",@progbits
 817               	.global	lcd_move_cursor
 819               	lcd_move_cursor:
 820               	.LFB20:
 821               	.LSM106:
 822               	.LVL51:
 823               	/* prologue: function */
 824               	/* frame size = 0 */
 825               	.LSM107:
 826 0000 860F      		add r24,r22
 827               	.LVL52:
 828 0002 0E94 0000 		call lcd_load_byte
 829               	.LVL53:
 830               	.LSM108:
 831 0006 0E94 0000 		call lcd_send_cmd
 832               	/* epilogue start */
 833               	.LSM109:
 834 000a 0895      		ret
 835               	.LFE20:
 837               		.section	.text.lcd_inc_cursor,"ax",@progbits
 838               	.global	lcd_inc_cursor
 840               	lcd_inc_cursor:
 841               	.LFB21:
 842               	.LSM110:
 843               	.LVL54:
 844 0000 1F93      		push r17
 845               	/* prologue: function */
 846               	/* frame size = 0 */
 847 0002 182F      		mov r17,r24
 848 0004 00C0      		rjmp .L48
 849               	.LVL55:
 850               	.L49:
 851               	.LSM111:
 852 0006 84E1      		ldi r24,lo8(20)
 853 0008 0E94 0000 		call lcd_load_byte
 854               	.LSM112:
 855 000c 0E94 0000 		call lcd_send_cmd
 856 0010 1150      		subi r17,lo8(-(-1))
 857               	.LVL56:
 858               	.L48:
 859               	.LSM113:
 860 0012 1123      		tst r17
 861 0014 01F4      		brne .L49
 862               	/* epilogue start */
 863               	.LSM114:
 864 0016 1F91      		pop r17
 865               	.LVL57:
 866 0018 0895      		ret
 867               	.LFE21:
 869               		.section	.text.lcd_dec_cursor,"ax",@progbits
 870               	.global	lcd_dec_cursor
 872               	lcd_dec_cursor:
 873               	.LFB22:
 874               	.LSM115:
 875               	.LVL58:
 876 0000 1F93      		push r17
 877               	/* prologue: function */
 878               	/* frame size = 0 */
 879 0002 182F      		mov r17,r24
 880 0004 00C0      		rjmp .L52
 881               	.LVL59:
 882               	.L53:
 883               	.LSM116:
 884 0006 80E1      		ldi r24,lo8(16)
 885 0008 0E94 0000 		call lcd_load_byte
 886               	.LSM117:
 887 000c 0E94 0000 		call lcd_send_cmd
 888 0010 1150      		subi r17,lo8(-(-1))
 889               	.LVL60:
 890               	.L52:
 891               	.LSM118:
 892 0012 1123      		tst r17
 893 0014 01F4      		brne .L53
 894               	/* epilogue start */
 895               	.LSM119:
 896 0016 1F91      		pop r17
 897               	.LVL61:
 898 0018 0895      		ret
 899               	.LFE22:
 901               		.section	.text.lcd_gotoxy,"ax",@progbits
 902               	.global	lcd_gotoxy
 904               	lcd_gotoxy:
 905               	.LFB23:
 906               	.LSM120:
 907               	.LVL62:
 908               	/* prologue: function */
 909               	/* frame size = 0 */
 910               	.LSM121:
 911 0000 6623      		tst r22
 912 0002 01F4      		brne .L56
 913               	.LSM122:
 914 0004 8058      		subi r24,lo8(-(-128))
 915               	.LVL63:
 916 0006 00C0      		rjmp .L59
 917               	.LVL64:
 918               	.L56:
 919               	.LSM123:
 920 0008 8054      		subi r24,lo8(-(-64))
 921               	.LVL65:
 922               	.L59:
 923 000a 0E94 0000 		call lcd_load_byte
 924               	.LVL66:
 925               	.LSM124:
 926 000e 0E94 0000 		call lcd_send_cmd
 927 0012 0895      		ret
 928               	.LFE23:
 930               		.section	.text.lcd_cls,"ax",@progbits
 931               	.global	lcd_cls
 933               	lcd_cls:
 934               	.LFB24:
 935               	.LSM125:
 936 0000 0F93      		push r16
 937 0002 1F93      		push r17
 938               	/* prologue: function */
 939               	/* frame size = 0 */
 940               	.LSM126:
 941 0004 81E0      		ldi r24,lo8(1)
 942 0006 0E94 0000 		call lcd_load_byte
 943               	.LSM127:
 944 000a 0E94 0000 		call lcd_send_cmd
 945               	.LBB296:
 946               	.LBB297:
 947               	.LBB298:
 948               	.LBB299:
 949               	.LBB300:
 950               	.LBB301:
 951               	.LSM128:
 952 000e 00E0      		ldi r16,lo8(3840)
 953 0010 1FE0      		ldi r17,hi8(3840)
 954 0012 C801      		movw r24,r16
 955               	.LVL67:
 956               	/* #APP */
 957               	 ;  105 "/usr/local/CrossPack-AVR-20100115/lib/gcc/avr/4.3.3/../../../../avr/include/util/delay_bas
 958 0014 0197      		1: sbiw r24,1
 959 0016 01F4      		brne 1b
 960               	 ;  0 "" 2
 961               	/* #NOAPP */
 962 0018 C801      		movw r24,r16
 963               	.LVL68:
 964               	/* #APP */
 965               	 ;  105 "/usr/local/CrossPack-AVR-20100115/lib/gcc/avr/4.3.3/../../../../avr/include/util/delay_bas
 966 001a 0197      		1: sbiw r24,1
 967 001c 01F4      		brne 1b
 968               	 ;  0 "" 2
 969               	/* #NOAPP */
 970               	.LBE301:
 971               	.LBE300:
 972               	.LBE299:
 973               	.LBE298:
 974               	.LBE297:
 975               	.LBE296:
 976               	.LSM129:
 977 001e 82E0      		ldi r24,lo8(2)
 978               	.LVL69:
 979 0020 0E94 0000 		call lcd_load_byte
 980               	.LSM130:
 981 0024 0E94 0000 		call lcd_send_cmd
 982               	.LBB302:
 983               	.LBB303:
 984               	.LBB304:
 985               	.LBB305:
 986               	.LBB306:
 987               	.LBB307:
 988               	.LSM131:
 989 0028 C801      		movw r24,r16
 990               	.LVL70:
 991               	/* #APP */
 992               	 ;  105 "/usr/local/CrossPack-AVR-20100115/lib/gcc/avr/4.3.3/../../../../avr/include/util/delay_bas
 993 002a 0197      		1: sbiw r24,1
 994 002c 01F4      		brne 1b
 995               	 ;  0 "" 2
 996               	/* #NOAPP */
 997 002e C801      		movw r24,r16
 998               	.LVL71:
 999               	/* #APP */
 1000               	 ;  105 "/usr/local/CrossPack-AVR-20100115/lib/gcc/avr/4.3.3/../../../../avr/include/util/delay_bas
 1001 0030 0197      		1: sbiw r24,1
 1002 0032 01F4      		brne 1b
 1003               	 ;  0 "" 2
 1004               	/* epilogue start */
 1005               	/* #NOAPP */
 1006               	.LBE307:
 1007               	.LBE306:
 1008               	.LBE305:
 1009               	.LBE304:
 1010               	.LBE303:
 1011               	.LBE302:
 1012               	.LSM132:
 1013 0034 1F91      		pop r17
 1014 0036 0F91      		pop r16
 1015 0038 0895      		ret
 1016               	.LFE24:
 1018               		.section	.text.lcd_clr_line,"ax",@progbits
 1019               	.global	lcd_clr_line
 1021               	lcd_clr_line:
 1022               	.LFB25:
 1023               	.LSM133:
 1024               	.LVL72:
 1025 0000 0F93      		push r16
 1026 0002 1F93      		push r17
 1027               	/* prologue: function */
 1028               	/* frame size = 0 */
 1029 0004 082F      		mov r16,r24
 1030               	.LSM134:
 1031 0006 80E0      		ldi r24,lo8(0)
 1032               	.LVL73:
 1033 0008 602F      		mov r22,r16
 1034 000a 0E94 0000 		call lcd_gotoxy
 1035 000e 10E0      		ldi r17,lo8(0)
 1036               	.LVL74:
 1037               	.L63:
 1038               	.LSM135:
 1039 0010 80E2      		ldi r24,lo8(32)
 1040 0012 0E94 0000 		call lcd_putc
 1041               	.LSM136:
 1042 0016 1F5F      		subi r17,lo8(-(1))
 1043 0018 1431      		cpi r17,lo8(20)
 1044 001a 01F4      		brne .L63
 1045               	.LSM137:
 1046 001c 80E0      		ldi r24,lo8(0)
 1047 001e 602F      		mov r22,r16
 1048 0020 0E94 0000 		call lcd_gotoxy
 1049               	.LBB308:
 1050               	.LBB309:
 1051               	.LBB310:
 1052               	.LBB311:
 1053               	.LBB312:
 1054               	.LBB313:
 1055               	.LSM138:
 1056 0024 80E0      		ldi r24,lo8(3840)
 1057 0026 9FE0      		ldi r25,hi8(3840)
 1058 0028 FC01      		movw r30,r24
 1059               	.LVL75:
 1060               	/* #APP */
 1061               	 ;  105 "/usr/local/CrossPack-AVR-20100115/lib/gcc/avr/4.3.3/../../../../avr/include/util/delay_bas
 1062 002a 3197      		1: sbiw r30,1
 1063 002c 01F4      		brne 1b
 1064               	 ;  0 "" 2
 1065               	 ;  105 "/usr/local/CrossPack-AVR-20100115/lib/gcc/avr/4.3.3/../../../../avr/include/util/delay_bas
 1066 002e 0197      		1: sbiw r24,1
 1067 0030 01F4      		brne 1b
 1068               	 ;  0 "" 2
 1069               	.LVL76:
 1070               	/* epilogue start */
 1071               	/* #NOAPP */
 1072               	.LBE313:
 1073               	.LBE312:
 1074               	.LBE311:
 1075               	.LBE310:
 1076               	.LBE309:
 1077               	.LBE308:
 1078               	.LSM139:
 1079 0032 1F91      		pop r17
 1080               	.LVL77:
 1081 0034 0F91      		pop r16
 1082               	.LVL78:
 1083 0036 0895      		ret
 1084               	.LFE25:
 1086               		.section	.text.r_uitoa,"ax",@progbits
 1087               	.global	r_uitoa
 1089               	r_uitoa:
 1090               	.LFB26:
 1091               	.LSM140:
 1092               	.LVL79:
 1093 0000 DF92      		push r13
 1094 0002 EF92      		push r14
 1095 0004 FF92      		push r15
 1096 0006 0F93      		push r16
 1097 0008 1F93      		push r17
 1098 000a CF93      		push r28
 1099 000c DF93      		push r29
 1100               	/* prologue: function */
 1101               	/* frame size = 0 */
 1102 000e 7B01      		movw r14,r22
 1103               	.LVL80:
 1104 0010 8C01      		movw r16,r24
 1105 0012 FA01      		movw r30,r20
 1106               	.LSM141:
 1107 0014 1286      		std Z+10,__zero_reg__
 1108 0016 EA01      		movw r28,r20
 1109 0018 89E0      		ldi r24,lo8(9)
 1110 001a D82E      		mov r13,r24
 1111               	.LVL81:
 1112               	.L67:
 1113               	.LSM142:
 1114 001c B701      		movw r22,r14
 1115 001e C801      		movw r24,r16
 1116 0020 2AE0      		ldi r18,lo8(10)
 1117 0022 30E0      		ldi r19,hi8(10)
 1118 0024 40E0      		ldi r20,hlo8(10)
 1119 0026 50E0      		ldi r21,hhi8(10)
 1120 0028 0E94 0000 		call __udivmodsi4
 1121 002c 605D      		subi r22,lo8(-(48))
 1122 002e 6987      		std Y+9,r22
 1123               	.LSM143:
 1124 0030 B701      		movw r22,r14
 1125 0032 C801      		movw r24,r16
 1126 0034 2AE0      		ldi r18,lo8(10)
 1127 0036 30E0      		ldi r19,hi8(10)
 1128 0038 40E0      		ldi r20,hlo8(10)
 1129 003a 50E0      		ldi r21,hhi8(10)
 1130 003c 0E94 0000 		call __udivmodsi4
 1131 0040 7901      		movw r14,r18
 1132 0042 8A01      		movw r16,r20
 1133               	.LVL82:
 1134               	.LSM144:
 1135 0044 DA94      		dec r13
 1136 0046 2197      		sbiw r28,1
 1137 0048 8FEF      		ldi r24,lo8(-1)
 1138 004a D816      		cp r13,r24
 1139 004c 01F4      		brne .L67
 1140               	/* epilogue start */
 1141               	.LSM145:
 1142 004e DF91      		pop r29
 1143 0050 CF91      		pop r28
 1144 0052 1F91      		pop r17
 1145 0054 0F91      		pop r16
 1146 0056 FF90      		pop r15
 1147 0058 EF90      		pop r14
 1148 005a DF90      		pop r13
 1149               	.LVL83:
 1150 005c 0895      		ret
 1151               	.LFE26:
 1153               		.section	.text.r_itoa,"ax",@progbits
 1154               	.global	r_itoa
 1156               	r_itoa:
 1157               	.LFB27:
 1158               	.LSM146:
 1159               	.LVL84:
 1160 0000 DF92      		push r13
 1161 0002 EF92      		push r14
 1162 0004 FF92      		push r15
 1163 0006 0F93      		push r16
 1164 0008 1F93      		push r17
 1165 000a CF93      		push r28
 1166 000c DF93      		push r29
 1167               	/* prologue: function */
 1168               	/* frame size = 0 */
 1169 000e 7B01      		movw r14,r22
 1170 0010 8C01      		movw r16,r24
 1171 0012 FA01      		movw r30,r20
 1172               	.LSM147:
 1173 0014 1386      		std Z+11,__zero_reg__
 1174               	.LSM148:
 1175 0016 97FF      		sbrs r25,7
 1176 0018 00C0      		rjmp .L71
 1177               	.LVL85:
 1178               	.LSM149:
 1179 001a 8DE2      		ldi r24,lo8(45)
 1180 001c 8083      		st Z,r24
 1181               	.LSM150:
 1182 001e 1095      		com r17
 1183 0020 0095      		com r16
 1184 0022 F094      		com r15
 1185 0024 E094      		com r14
 1186 0026 E11C      		adc r14,__zero_reg__
 1187 0028 F11C      		adc r15,__zero_reg__
 1188 002a 011D      		adc r16,__zero_reg__
 1189 002c 111D      		adc r17,__zero_reg__
 1190               	.LVL86:
 1191               	.L73:
 1192 002e EF01      		movw r28,r30
 1193 0030 9AE0      		ldi r25,lo8(10)
 1194 0032 D92E      		mov r13,r25
 1195               	.LVL87:
 1196 0034 00C0      		rjmp .L72
 1197               	.LVL88:
 1198               	.L71:
 1199               	.LSM151:
 1200 0036 80E2      		ldi r24,lo8(32)
 1201 0038 8083      		st Z,r24
 1202 003a 00C0      		rjmp .L73
 1203               	.LVL89:
 1204               	.L72:
 1205               	.LSM152:
 1206 003c C801      		movw r24,r16
 1207 003e B701      		movw r22,r14
 1208 0040 2AE0      		ldi r18,lo8(10)
 1209 0042 30E0      		ldi r19,hi8(10)
 1210 0044 40E0      		ldi r20,hlo8(10)
 1211 0046 50E0      		ldi r21,hhi8(10)
 1212 0048 0E94 0000 		call __divmodsi4
 1213               	.LVL90:
 1214 004c 605D      		subi r22,lo8(-(48))
 1215 004e 6A87      		std Y+10,r22
 1216               	.LSM153:
 1217 0050 C801      		movw r24,r16
 1218 0052 B701      		movw r22,r14
 1219 0054 2AE0      		ldi r18,lo8(10)
 1220 0056 30E0      		ldi r19,hi8(10)
 1221 0058 40E0      		ldi r20,hlo8(10)
 1222 005a 50E0      		ldi r21,hhi8(10)
 1223 005c 0E94 0000 		call __divmodsi4
 1224 0060 C901      		movw r24,r18
 1225 0062 DA01      		movw r26,r20
 1226               	.LVL91:
 1227 0064 7C01      		movw r14,r24
 1228 0066 8D01      		movw r16,r26
 1229               	.LSM154:
 1230 0068 DA94      		dec r13
 1231 006a 2197      		sbiw r28,1
 1232 006c DD20      		tst r13
 1233 006e 01F4      		brne .L72
 1234               	/* epilogue start */
 1235               	.LSM155:
 1236 0070 DF91      		pop r29
 1237 0072 CF91      		pop r28
 1238 0074 1F91      		pop r17
 1239 0076 0F91      		pop r16
 1240 0078 FF90      		pop r15
 1241 007a EF90      		pop r14
 1242               	.LVL92:
 1243 007c DF90      		pop r13
 1244               	.LVL93:
 1245 007e 0895      		ret
 1246               	.LFE27:
 1248               		.section	.text.r_itoa16,"ax",@progbits
 1249               	.global	r_itoa16
 1251               	r_itoa16:
 1252               	.LFB28:
 1253               	.LSM156:
 1254               	.LVL94:
 1255               	/* prologue: function */
 1256               	/* frame size = 0 */
 1257 0000 9C01      		movw r18,r24
 1258 0002 FB01      		movw r30,r22
 1259               	.LSM157:
 1260 0004 1782      		std Z+7,__zero_reg__
 1261               	.LSM158:
 1262 0006 97FF      		sbrs r25,7
 1263 0008 00C0      		rjmp .L77
 1264               	.LVL95:
 1265               	.LSM159:
 1266 000a 8DE2      		ldi r24,lo8(45)
 1267               	.LVL96:
 1268 000c 8083      		st Z,r24
 1269               	.LSM160:
 1270 000e 3095      		com r19
 1271 0010 2195      		neg r18
 1272 0012 3F4F      		sbci r19,lo8(-1)
 1273               	.L79:
 1274 0014 46E0      		ldi r20,lo8(6)
 1275               	.LVL97:
 1276 0016 00C0      		rjmp .L78
 1277               	.LVL98:
 1278               	.L77:
 1279               	.LSM161:
 1280 0018 80E2      		ldi r24,lo8(32)
 1281               	.LVL99:
 1282 001a 8083      		st Z,r24
 1283 001c 00C0      		rjmp .L79
 1284               	.LVL100:
 1285               	.L78:
 1286               	.LSM162:
 1287 001e C901      		movw r24,r18
 1288 0020 6AE0      		ldi r22,lo8(10)
 1289 0022 70E0      		ldi r23,hi8(10)
 1290 0024 0E94 0000 		call __divmodhi4
 1291 0028 805D      		subi r24,lo8(-(48))
 1292 002a 8683      		std Z+6,r24
 1293               	.LVL101:
 1294               	.LSM163:
 1295 002c C901      		movw r24,r18
 1296 002e 6AE0      		ldi r22,lo8(10)
 1297 0030 70E0      		ldi r23,hi8(10)
 1298 0032 0E94 0000 		call __divmodhi4
 1299 0036 9B01      		movw r18,r22
 1300               	.LSM164:
 1301 0038 4150      		subi r20,lo8(-(-1))
 1302 003a 3197      		sbiw r30,1
 1303 003c 4423      		tst r20
 1304 003e 01F4      		brne .L78
 1305               	/* epilogue start */
 1306               	.LSM165:
 1307 0040 0895      		ret
 1308               	.LFE28:
 1310               		.section	.text.lcd_puthex,"ax",@progbits
 1311               	.global	lcd_puthex
 1313               	lcd_puthex:
 1314               	.LFB29:
 1315               	.LSM166:
 1316               	.LVL102:
 1317 0000 DF93      		push r29
 1318 0002 CF93      		push r28
 1319 0004 00D0      		rcall .
 1320 0006 0F92      		push __tmp_reg__
 1321 0008 CDB7      		in r28,__SP_L__
 1322 000a DEB7      		in r29,__SP_H__
 1323               	/* prologue: function */
 1324               	/* frame size = 3 */
 1325 000c 282F      		mov r18,r24
 1326               	.LSM167:
 1327 000e 8F70      		andi r24,lo8(15)
 1328               	.LVL103:
 1329               	.LSM168:
 1330 0010 8A30      		cpi r24,lo8(10)
 1331 0012 00F4      		brsh .L83
 1332               	.LSM169:
 1333 0014 805D      		subi r24,lo8(-(48))
 1334 0016 8A83      		std Y+2,r24
 1335 0018 00C0      		rjmp .L84
 1336               	.L83:
 1337               	.LSM170:
 1338 001a 6AE0      		ldi r22,lo8(10)
 1339 001c 0E94 0000 		call __udivmodqi4
 1340               	.LVL104:
 1341 0020 9F5B      		subi r25,lo8(-(65))
 1342 0022 9A83      		std Y+2,r25
 1343               	.LVL105:
 1344               	.L84:
 1345               	.LSM171:
 1346 0024 822F      		mov r24,r18
 1347               	.LVL106:
 1348 0026 8295      		swap r24
 1349 0028 8F70      		andi r24,lo8(15)
 1350               	.LSM172:
 1351 002a 8A30      		cpi r24,lo8(10)
 1352 002c 00F4      		brsh .L85
 1353               	.LSM173:
 1354 002e 805D      		subi r24,lo8(-(48))
 1355 0030 8983      		std Y+1,r24
 1356 0032 00C0      		rjmp .L86
 1357               	.L85:
 1358               	.LSM174:
 1359 0034 6AE0      		ldi r22,lo8(10)
 1360 0036 0E94 0000 		call __udivmodqi4
 1361               	.LVL107:
 1362 003a 9F5B      		subi r25,lo8(-(65))
 1363 003c 9983      		std Y+1,r25
 1364               	.LVL108:
 1365               	.L86:
 1366               	.LSM175:
 1367 003e 1B82      		std Y+3,__zero_reg__
 1368               	.LSM176:
 1369 0040 CE01      		movw r24,r28
 1370               	.LVL109:
 1371 0042 0196      		adiw r24,1
 1372 0044 0E94 0000 		call lcd_puts
 1373               	.LVL110:
 1374               	/* epilogue start */
 1375               	.LSM177:
 1376 0048 0F90      		pop __tmp_reg__
 1377 004a 0F90      		pop __tmp_reg__
 1378 004c 0F90      		pop __tmp_reg__
 1379 004e CF91      		pop r28
 1380 0050 DF91      		pop r29
 1381 0052 0895      		ret
 1382               	.LFE29:
 1384               		.section	.text.lcd_put_frac,"ax",@progbits
 1385               	.global	lcd_put_frac
 1387               	lcd_put_frac:
 1388               	.LFB30:
 1389               	.LSM178:
 1390               	.LVL111:
 1391 0000 CF92      		push r12
 1392 0002 DF92      		push r13
 1393 0004 EF92      		push r14
 1394 0006 FF92      		push r15
 1395 0008 0F93      		push r16
 1396 000a 1F93      		push r17
 1397 000c CF93      		push r28
 1398 000e DF93      		push r29
 1399               	/* prologue: function */
 1400               	/* frame size = 0 */
 1401 0010 7C01      		movw r14,r24
 1402 0012 162F      		mov r17,r22
 1403 0014 D42E      		mov r13,r20
 1404 0016 C22E      		mov r12,r18
 1405               	.LSM179:
 1406 0018 FC01      		movw r30,r24
 1407 001a 8081      		ld r24,Z
 1408               	.LVL112:
 1409 001c 8D32      		cpi r24,lo8(45)
 1410 001e 01F0      		breq .L99
 1411               	.LVL113:
 1412               	.L89:
 1413 0020 80E2      		ldi r24,lo8(32)
 1414               	.L99:
 1415 0022 0E94 0000 		call lcd_putc
 1416 0026 00E0      		ldi r16,lo8(0)
 1417               	.LVL114:
 1418 0028 00C0      		rjmp .L91
 1419               	.LVL115:
 1420               	.L95:
 1421               	.LSM180:
 1422 002a 0130      		cpi r16,lo8(1)
 1423 002c 01F0      		breq .L92
 1424 002e F701      		movw r30,r14
 1425 0030 E10F      		add r30,r17
 1426 0032 F11D      		adc r31,__zero_reg__
 1427 0034 8081      		ld r24,Z
 1428 0036 8033      		cpi r24,lo8(48)
 1429 0038 01F0      		breq .L93
 1430               	.L92:
 1431               	.LSM181:
 1432 003a F701      		movw r30,r14
 1433 003c E10F      		add r30,r17
 1434 003e F11D      		adc r31,__zero_reg__
 1435 0040 8081      		ld r24,Z
 1436 0042 0E94 0000 		call lcd_putc
 1437 0046 01E0      		ldi r16,lo8(1)
 1438 0048 00C0      		rjmp .L94
 1439               	.L93:
 1440               	.LSM182:
 1441 004a 80E2      		ldi r24,lo8(32)
 1442 004c 0E94 0000 		call lcd_putc
 1443               	.L94:
 1444               	.LSM183:
 1445 0050 1150      		subi r17,lo8(-(-1))
 1446               	.LVL116:
 1447               	.L91:
 1448 0052 1123      		tst r17
 1449 0054 01F4      		brne .L95
 1450               	.LSM184:
 1451 0056 8EE2      		ldi r24,lo8(46)
 1452 0058 0E94 0000 		call lcd_putc
 1453               	.LSM185:
 1454 005c CD2D      		mov r28,r13
 1455 005e D0E0      		ldi r29,lo8(0)
 1456 0060 CC0D      		add r28,r12
 1457 0062 D11D      		adc r29,__zero_reg__
 1458 0064 00C0      		rjmp .L96
 1459               	.LVL117:
 1460               	.L97:
 1461 0066 EE0D      		add r30,r14
 1462 0068 FF1D      		adc r31,r15
 1463               	.LVL118:
 1464 006a 8081      		ld r24,Z
 1465 006c 0E94 0000 		call lcd_putc
 1466               	.LVL119:
 1467 0070 1F5F      		subi r17,lo8(-(1))
 1468               	.LVL120:
 1469               	.L96:
 1470 0072 E12F      		mov r30,r17
 1471 0074 F0E0      		ldi r31,lo8(0)
 1472               	.LVL121:
 1473 0076 EC17      		cp r30,r28
 1474 0078 FD07      		cpc r31,r29
 1475 007a 04F0      		brlt .L97
 1476               	.LVL122:
 1477               	/* epilogue start */
 1478               	.LSM186:
 1479 007c DF91      		pop r29
 1480 007e CF91      		pop r28
 1481 0080 1F91      		pop r17
 1482               	.LVL123:
 1483 0082 0F91      		pop r16
 1484               	.LVL124:
 1485 0084 FF90      		pop r15
 1486 0086 EF90      		pop r14
 1487               	.LVL125:
 1488 0088 DF90      		pop r13
 1489               	.LVL126:
 1490 008a CF90      		pop r12
 1491               	.LVL127:
 1492 008c 0895      		ret
 1493               	.LFE30:
 1495               		.section	.text.lcd_put_zeit,"ax",@progbits
 1496               	.global	lcd_put_zeit
 1498               	lcd_put_zeit:
 1499               	.LFB31:
 1500               	.LSM187:
 1501               	.LVL128:
 1502 0000 DF93      		push r29
 1503 0002 CF93      		push r28
 1504 0004 00D0      		rcall .
 1505 0006 00D0      		rcall .
 1506 0008 00D0      		rcall .
 1507 000a CDB7      		in r28,__SP_L__
 1508 000c DEB7      		in r29,__SP_H__
 1509               	/* prologue: function */
 1510               	/* frame size = 6 */
 1511 000e 282F      		mov r18,r24
 1512 0010 362F      		mov r19,r22
 1513               	.LSM188:
 1514 0012 1E82      		std Y+6,__zero_reg__
 1515               	.LSM189:
 1516 0014 6AE0      		ldi r22,lo8(10)
 1517               	.LVL129:
 1518 0016 0E94 0000 		call __udivmodqi4
 1519               	.LVL130:
 1520 001a 905D      		subi r25,lo8(-(48))
 1521 001c 9D83      		std Y+5,r25
 1522               	.LSM190:
 1523 001e 2A30      		cpi r18,lo8(10)
 1524 0020 00F0      		brlo .L101
 1525               	.LSM191:
 1526 0022 822F      		mov r24,r18
 1527 0024 0E94 0000 		call __udivmodqi4
 1528 0028 0E94 0000 		call __udivmodqi4
 1529 002c 905D      		subi r25,lo8(-(48))
 1530 002e 9C83      		std Y+4,r25
 1531 0030 00C0      		rjmp .L102
 1532               	.L101:
 1533               	.LSM192:
 1534 0032 80E3      		ldi r24,lo8(48)
 1535 0034 8C83      		std Y+4,r24
 1536               	.L102:
 1537               	.LSM193:
 1538 0036 8AE3      		ldi r24,lo8(58)
 1539 0038 8B83      		std Y+3,r24
 1540               	.LSM194:
 1541 003a 832F      		mov r24,r19
 1542 003c 6AE0      		ldi r22,lo8(10)
 1543 003e 0E94 0000 		call __udivmodqi4
 1544 0042 905D      		subi r25,lo8(-(48))
 1545 0044 9A83      		std Y+2,r25
 1546               	.LSM195:
 1547 0046 3A30      		cpi r19,lo8(10)
 1548 0048 00F0      		brlo .L103
 1549               	.LSM196:
 1550 004a 832F      		mov r24,r19
 1551 004c 0E94 0000 		call __udivmodqi4
 1552 0050 0E94 0000 		call __udivmodqi4
 1553 0054 905D      		subi r25,lo8(-(48))
 1554 0056 9983      		std Y+1,r25
 1555 0058 00C0      		rjmp .L104
 1556               	.L103:
 1557               	.LSM197:
 1558 005a 80E3      		ldi r24,lo8(48)
 1559 005c 8983      		std Y+1,r24
 1560               	.L104:
 1561               	.LSM198:
 1562 005e CE01      		movw r24,r28
 1563 0060 0196      		adiw r24,1
 1564 0062 0E94 0000 		call lcd_puts
 1565               	.LVL131:
 1566               	/* epilogue start */
 1567               	.LSM199:
 1568 0066 2696      		adiw r28,6
 1569 0068 0FB6      		in __tmp_reg__,__SREG__
 1570 006a F894      		cli
 1571 006c DEBF      		out __SP_H__,r29
 1572 006e 0FBE      		out __SREG__,__tmp_reg__
 1573 0070 CDBF      		out __SP_L__,r28
 1574 0072 CF91      		pop r28
 1575 0074 DF91      		pop r29
 1576 0076 0895      		ret
 1577               	.LFE31:
 1579               		.section	.text.lcd_put_wochentag,"ax",@progbits
 1580               	.global	lcd_put_wochentag
 1582               	lcd_put_wochentag:
 1583               	.LFB32:
 1584               	.LSM200:
 1585               	.LVL132:
 1586 0000 DF93      		push r29
 1587 0002 CF93      		push r28
 1588 0004 CDB7      		in r28,__SP_L__
 1589 0006 DEB7      		in r29,__SP_H__
 1590 0008 2E97      		sbiw r28,14
 1591 000a 0FB6      		in __tmp_reg__,__SREG__
 1592 000c F894      		cli
 1593 000e DEBF      		out __SP_H__,r29
 1594 0010 0FBE      		out __SREG__,__tmp_reg__
 1595 0012 CDBF      		out __SP_L__,r28
 1596               	/* prologue: function */
 1597               	/* frame size = 14 */
 1598               	.LSM201:
 1599 0014 FE01      		movw r30,r28
 1600 0016 3196      		adiw r30,1
 1601 0018 A0E0      		ldi r26,lo8(C.1.1917)
 1602 001a B0E0      		ldi r27,hi8(C.1.1917)
 1603 001c 9EE0      		ldi r25,lo8(14)
 1604               	.L107:
 1605 001e 0D90      		ld r0,X+
 1606 0020 0192      		st Z+,r0
 1607 0022 9150      		subi r25,lo8(-(-1))
 1608 0024 01F4      		brne .L107
 1609               	.LSM202:
 1610 0026 E82F      		mov r30,r24
 1611 0028 F0E0      		ldi r31,lo8(0)
 1612               	.LVL133:
 1613 002a 3197      		sbiw r30,1
 1614               	.LVL134:
 1615 002c EE0F      		lsl r30
 1616 002e FF1F      		rol r31
 1617               	.LVL135:
 1618 0030 EC0F      		add r30,r28
 1619 0032 FD1F      		adc r31,r29
 1620               	.LVL136:
 1621 0034 8181      		ldd r24,Z+1
 1622 0036 9281      		ldd r25,Z+2
 1623 0038 0E94 0000 		call lcd_puts
 1624               	.LVL137:
 1625               	/* epilogue start */
 1626               	.LSM203:
 1627 003c 2E96      		adiw r28,14
 1628 003e 0FB6      		in __tmp_reg__,__SREG__
 1629 0040 F894      		cli
 1630 0042 DEBF      		out __SP_H__,r29
 1631 0044 0FBE      		out __SREG__,__tmp_reg__
 1632 0046 CDBF      		out __SP_L__,r28
 1633 0048 CF91      		pop r28
 1634 004a DF91      		pop r29
 1635 004c 0895      		ret
 1636               	.LFE32:
 1638               		.section	.text.lcd_put_temperatur,"ax",@progbits
 1639               	.global	lcd_put_temperatur
 1641               	lcd_put_temperatur:
 1642               	.LFB33:
 1643               	.LSM204:
 1644               	.LVL138:
 1645 0000 AF92      		push r10
 1646 0002 BF92      		push r11
 1647 0004 DF92      		push r13
 1648 0006 EF92      		push r14
 1649 0008 FF92      		push r15
 1650 000a 0F93      		push r16
 1651 000c 1F93      		push r17
 1652 000e DF93      		push r29
 1653 0010 CF93      		push r28
 1654 0012 CDB7      		in r28,__SP_L__
 1655 0014 DEB7      		in r29,__SP_H__
 1656 0016 6097      		sbiw r28,16
 1657 0018 0FB6      		in __tmp_reg__,__SREG__
 1658 001a F894      		cli
 1659 001c DEBF      		out __SP_H__,r29
 1660 001e 0FBE      		out __SREG__,__tmp_reg__
 1661 0020 CDBF      		out __SP_L__,r28
 1662               	/* prologue: function */
 1663               	/* frame size = 16 */
 1664               	.LSM205:
 1665 0022 48E0      		ldi r20,lo8(8)
 1666 0024 D42E      		mov r13,r20
 1667 0026 7E01      		movw r14,r28
 1668 0028 0894      		sec
 1669 002a E11C      		adc r14,__zero_reg__
 1670 002c F11C      		adc r15,__zero_reg__
 1671 002e D701      		movw r26,r14
 1672 0030 ED2D      		mov r30,r13
 1673 0032 1D92      		st X+,__zero_reg__
 1674 0034 EA95      	        dec r30
 1675 0036 01F4      		brne .-6
 1676               	.LSM206:
 1677 0038 8C01      		movw r16,r24
 1678 003a 000F      		lsl r16
 1679 003c 111F      		rol r17
 1680 003e 000F      		lsl r16
 1681 0040 111F      		rol r17
 1682 0042 080F      		add r16,r24
 1683 0044 191F      		adc r17,r25
 1684               	.LSM207:
 1685 0046 80E0      		ldi r24,lo8(0)
 1686               	.LVL139:
 1687 0048 61E0      		ldi r22,lo8(1)
 1688 004a 0E94 0000 		call lcd_gotoxy
 1689               	.LSM208:
 1690 004e C801      		movw r24,r16
 1691 0050 0E94 0000 		call lcd_putint16
 1692               	.LSM209:
 1693 0054 5801      		movw r10,r16
 1694 0056 C801      		movw r24,r16
 1695 0058 B701      		movw r22,r14
 1696 005a 0E94 0000 		call r_itoa16
 1697               	.LSM210:
 1698 005e FE01      		movw r30,r28
 1699 0060 3996      		adiw r30,9
 1700 0062 DF01      		movw r26,r30
 1701 0064 1D92      		st X+,__zero_reg__
 1702 0066 DA94      	        dec r13
 1703 0068 01F4      		brne .-6
 1704               	.LSM211:
 1705 006a 188A      		std Y+16,__zero_reg__
 1706               	.LSM212:
 1707 006c 8FED      		ldi r24,lo8(-33)
 1708 006e 8F87      		std Y+15,r24
 1709               	.LSM213:
 1710 0070 8F81      		ldd r24,Y+7
 1711 0072 8E87      		std Y+14,r24
 1712               	.LSM214:
 1713 0074 8EE2      		ldi r24,lo8(46)
 1714 0076 8D87      		std Y+13,r24
 1715               	.LSM215:
 1716 0078 8E81      		ldd r24,Y+6
 1717 007a 8C87      		std Y+12,r24
 1718               	.LSM216:
 1719 007c BFEF      		ldi r27,hi8(-99)
 1720 007e 0D39      		cpi r16,lo8(-99)
 1721 0080 1B07      		cpc r17,r27
 1722 0082 04F0      		brlt .L111
 1723 0084 0436      		cpi r16,100
 1724 0086 1105      		cpc r17,__zero_reg__
 1725 0088 04F4      		brge .L112
 1726               	.LSM217:
 1727 008a 80E2      		ldi r24,lo8(32)
 1728 008c 8B87      		std Y+11,r24
 1729 008e 00C0      		rjmp .L116
 1730               	.L111:
 1731               	.LSM218:
 1732 0090 FCEF      		ldi r31,hi8(-999)
 1733 0092 0931      		cpi r16,lo8(-999)
 1734 0094 1F07      		cpc r17,r31
 1735 0096 04F0      		brlt .L114
 1736               	.L112:
 1737 0098 28EE      		ldi r18,lo8(1000)
 1738 009a A216      		cp r10,r18
 1739 009c 23E0      		ldi r18,hi8(1000)
 1740 009e B206      		cpc r11,r18
 1741 00a0 04F4      		brge .L114
 1742               	.LSM219:
 1743 00a2 8D81      		ldd r24,Y+5
 1744 00a4 8B87      		std Y+11,r24
 1745               	.LSM220:
 1746 00a6 80E2      		ldi r24,lo8(32)
 1747 00a8 00C0      		rjmp .L116
 1748               	.L114:
 1749               	.LSM221:
 1750 00aa 8D81      		ldd r24,Y+5
 1751 00ac 8B87      		std Y+11,r24
 1752               	.LSM222:
 1753 00ae 8C81      		ldd r24,Y+4
 1754               	.L116:
 1755 00b0 8A87      		std Y+10,r24
 1756               	.LSM223:
 1757 00b2 8981      		ldd r24,Y+1
 1758 00b4 8987      		std Y+9,r24
 1759               	.LSM224:
 1760 00b6 CE01      		movw r24,r28
 1761 00b8 0996      		adiw r24,9
 1762 00ba 0E94 0000 		call lcd_puts
 1763               	/* epilogue start */
 1764               	.LSM225:
 1765 00be 6096      		adiw r28,16
 1766 00c0 0FB6      		in __tmp_reg__,__SREG__
 1767 00c2 F894      		cli
 1768 00c4 DEBF      		out __SP_H__,r29
 1769 00c6 0FBE      		out __SREG__,__tmp_reg__
 1770 00c8 CDBF      		out __SP_L__,r28
 1771 00ca CF91      		pop r28
 1772 00cc DF91      		pop r29
 1773 00ce 1F91      		pop r17
 1774 00d0 0F91      		pop r16
 1775 00d2 FF90      		pop r15
 1776 00d4 EF90      		pop r14
 1777 00d6 DF90      		pop r13
 1778 00d8 BF90      		pop r11
 1779 00da AF90      		pop r10
 1780 00dc 0895      		ret
 1781               	.LFE33:
 1783               		.data
 1784               	.LC0:
 1785 0000 543A 00   		.string	"T:"
 1786 0003 00        		.string	""
 1787               		.section	.text.lcd_put_tempbis99,"ax",@progbits
 1788               	.global	lcd_put_tempbis99
 1790               	lcd_put_tempbis99:
 1791               	.LFB34:
 1792               	.LSM226:
 1793               	.LVL140:
 1794 0000 AF92      		push r10
 1795 0002 BF92      		push r11
 1796 0004 DF92      		push r13
 1797 0006 EF92      		push r14
 1798 0008 FF92      		push r15
 1799 000a 0F93      		push r16
 1800 000c 1F93      		push r17
 1801 000e DF93      		push r29
 1802 0010 CF93      		push r28
 1803 0012 CDB7      		in r28,__SP_L__
 1804 0014 DEB7      		in r29,__SP_H__
 1805 0016 2E97      		sbiw r28,14
 1806 0018 0FB6      		in __tmp_reg__,__SREG__
 1807 001a F894      		cli
 1808 001c DEBF      		out __SP_H__,r29
 1809 001e 0FBE      		out __SREG__,__tmp_reg__
 1810 0020 CDBF      		out __SP_L__,r28
 1811               	/* prologue: function */
 1812               	/* frame size = 14 */
 1813               	.LSM227:
 1814 0022 67E0      		ldi r22,lo8(7)
 1815 0024 D62E      		mov r13,r22
 1816 0026 7E01      		movw r14,r28
 1817 0028 0894      		sec
 1818 002a E11C      		adc r14,__zero_reg__
 1819 002c F11C      		adc r15,__zero_reg__
 1820 002e D701      		movw r26,r14
 1821 0030 ED2D      		mov r30,r13
 1822 0032 1D92      		st X+,__zero_reg__
 1823 0034 EA95      	        dec r30
 1824 0036 01F4      		brne .-6
 1825               	.LSM228:
 1826 0038 8C01      		movw r16,r24
 1827 003a 000F      		lsl r16
 1828 003c 111F      		rol r17
 1829 003e 000F      		lsl r16
 1830 0040 111F      		rol r17
 1831 0042 080F      		add r16,r24
 1832 0044 191F      		adc r17,r25
 1833               	.LSM229:
 1834 0046 80E0      		ldi r24,lo8(.LC0)
 1835 0048 90E0      		ldi r25,hi8(.LC0)
 1836               	.LVL141:
 1837 004a 0E94 0000 		call lcd_puts
 1838               	.LSM230:
 1839 004e C801      		movw r24,r16
 1840 0050 0E94 0000 		call lcd_putint16
 1841               	.LSM231:
 1842 0054 C801      		movw r24,r16
 1843 0056 B701      		movw r22,r14
 1844 0058 0E94 0000 		call r_itoa16
 1845               	.LSM232:
 1846 005c FE01      		movw r30,r28
 1847 005e 3896      		adiw r30,8
 1848 0060 DF01      		movw r26,r30
 1849 0062 1D92      		st X+,__zero_reg__
 1850 0064 DA94      	        dec r13
 1851 0066 01F4      		brne .-6
 1852               	.LSM233:
 1853 0068 1E86      		std Y+14,__zero_reg__
 1854               	.LSM234:
 1855 006a 8FED      		ldi r24,lo8(-33)
 1856 006c 8D87      		std Y+13,r24
 1857               	.LSM235:
 1858 006e 8F81      		ldd r24,Y+7
 1859 0070 8C87      		std Y+12,r24
 1860               	.LSM236:
 1861 0072 8EE2      		ldi r24,lo8(46)
 1862 0074 8B87      		std Y+11,r24
 1863               	.LSM237:
 1864 0076 8E81      		ldd r24,Y+6
 1865 0078 8A87      		std Y+10,r24
 1866               	.LSM238:
 1867 007a BFEF      		ldi r27,hi8(-99)
 1868 007c 0D39      		cpi r16,lo8(-99)
 1869 007e 1B07      		cpc r17,r27
 1870 0080 04F0      		brlt .L118
 1871 0082 0436      		cpi r16,100
 1872 0084 1105      		cpc r17,__zero_reg__
 1873 0086 04F4      		brge .L118
 1874               	.LSM239:
 1875 0088 80E2      		ldi r24,lo8(32)
 1876 008a 00C0      		rjmp .L121
 1877               	.L118:
 1878               	.LSM240:
 1879 008c 8D81      		ldd r24,Y+5
 1880               	.L121:
 1881 008e 8987      		std Y+9,r24
 1882               	.LSM241:
 1883 0090 8981      		ldd r24,Y+1
 1884 0092 8887      		std Y+8,r24
 1885               	.LSM242:
 1886 0094 CE01      		movw r24,r28
 1887 0096 0896      		adiw r24,8
 1888 0098 0E94 0000 		call lcd_puts
 1889               	.LBB314:
 1890               	.LBB315:
 1891               	.LBB316:
 1892               	.LBB317:
 1893               	.LBB318:
 1894               	.LBB319:
 1895               	.LSM243:
 1896 009c 80E0      		ldi r24,lo8(3840)
 1897 009e 9FE0      		ldi r25,hi8(3840)
 1898 00a0 FC01      		movw r30,r24
 1899               	.LVL142:
 1900               	/* #APP */
 1901               	 ;  105 "/usr/local/CrossPack-AVR-20100115/lib/gcc/avr/4.3.3/../../../../avr/include/util/delay_bas
 1902 00a2 3197      		1: sbiw r30,1
 1903 00a4 01F4      		brne 1b
 1904               	 ;  0 "" 2
 1905               	 ;  105 "/usr/local/CrossPack-AVR-20100115/lib/gcc/avr/4.3.3/../../../../avr/include/util/delay_bas
 1906 00a6 0197      		1: sbiw r24,1
 1907 00a8 01F4      		brne 1b
 1908               	 ;  0 "" 2
 1909               	.LVL143:
 1910               	/* epilogue start */
 1911               	/* #NOAPP */
 1912               	.LBE319:
 1913               	.LBE318:
 1914               	.LBE317:
 1915               	.LBE316:
 1916               	.LBE315:
 1917               	.LBE314:
 1918               	.LSM244:
 1919 00aa 2E96      		adiw r28,14
 1920 00ac 0FB6      		in __tmp_reg__,__SREG__
 1921 00ae F894      		cli
 1922 00b0 DEBF      		out __SP_H__,r29
 1923 00b2 0FBE      		out __SREG__,__tmp_reg__
 1924 00b4 CDBF      		out __SP_L__,r28
 1925 00b6 CF91      		pop r28
 1926 00b8 DF91      		pop r29
 1927 00ba 1F91      		pop r17
 1928 00bc 0F91      		pop r16
 1929 00be FF90      		pop r15
 1930 00c0 EF90      		pop r14
 1931 00c2 DF90      		pop r13
 1932 00c4 BF90      		pop r11
 1933 00c6 AF90      		pop r10
 1934 00c8 0895      		ret
 1935               	.LFE34:
 1937               		.section	.text.readKanal16Bit,"ax",@progbits
 1938               	.global	readKanal16Bit
 1940               	readKanal16Bit:
 1941               	.LFB35:
 1942               	.LSM245:
 1943               	.LVL144:
 1944 0000 DF93      		push r29
 1945 0002 CF93      		push r28
 1946 0004 00D0      		rcall .
 1947 0006 0F92      		push __tmp_reg__
 1948 0008 CDB7      		in r28,__SP_L__
 1949 000a DEB7      		in r29,__SP_H__
 1950               	/* prologue: function */
 1951               	/* frame size = 3 */
 1952               	.LSM246:
 1953 000c 95E8      		ldi r25,lo8(-123)
 1954 000e 9093 7A00 		sts 122,r25
 1955               	.LSM247:
 1956 0012 8093 7C00 		sts 124,r24
 1957               	.LSM248:
 1958 0016 8091 7C00 		lds r24,124
 1959               	.LVL145:
 1960 001a 8064      		ori r24,lo8(64)
 1961 001c 8093 7C00 		sts 124,r24
 1962               	.LSM249:
 1963 0020 8091 7A00 		lds r24,122
 1964 0024 8064      		ori r24,lo8(64)
 1965 0026 8093 7A00 		sts 122,r24
 1966               	.L123:
 1967               	.LSM250:
 1968 002a 8091 7A00 		lds r24,122
 1969 002e 86FD      		sbrc r24,6
 1970 0030 00C0      		rjmp .L123
 1971               	.LSM251:
 1972 0032 8091 7A00 		lds r24,122
 1973 0036 8064      		ori r24,lo8(64)
 1974 0038 8093 7A00 		sts 122,r24
 1975               	.L124:
 1976               	.LSM252:
 1977 003c 8091 7A00 		lds r24,122
 1978 0040 86FD      		sbrc r24,6
 1979 0042 00C0      		rjmp .L124
 1980               	.LSM253:
 1981 0044 7091 7800 		lds r23,120
 1982               	.LSM254:
 1983 0048 6091 7900 		lds r22,121
 1984               	.LSM255:
 1985 004c 8091 7800 		lds r24,120
 1986 0050 9091 7900 		lds r25,(120)+1
 1987               	.LSM256:
 1988 0054 2091 7A00 		lds r18,122
 1989 0058 2F77      		andi r18,lo8(127)
 1990 005a 2093 7A00 		sts 122,r18
 1991               	.LSM257:
 1992 005e 880F      		lsl r24
 1993 0060 880F      		lsl r24
 1994 0062 90E0      		ldi r25,lo8(0)
 1995               	/* epilogue start */
 1996 0064 0F90      		pop __tmp_reg__
 1997 0066 0F90      		pop __tmp_reg__
 1998 0068 0F90      		pop __tmp_reg__
 1999 006a CF91      		pop r28
 2000 006c DF91      		pop r29
 2001 006e 0895      		ret
 2002               	.LFE35:
 2004               		.section	.text.initADC,"ax",@progbits
 2005               	.global	initADC
 2007               	initADC:
 2008               	.LFB36:
 2009               	.LSM258:
 2010               	.LVL146:
 2011               	/* prologue: function */
 2012               	/* frame size = 0 */
 2013               	.LSM259:
 2014 0000 95E8      		ldi r25,lo8(-123)
 2015 0002 9093 7A00 		sts 122,r25
 2016               	.LSM260:
 2017 0006 8093 7C00 		sts 124,r24
 2018               	.LSM261:
 2019 000a 8091 7C00 		lds r24,124
 2020               	.LVL147:
 2021 000e 806C      		ori r24,lo8(-64)
 2022 0010 8093 7C00 		sts 124,r24
 2023               	.LSM262:
 2024 0014 8091 7A00 		lds r24,122
 2025 0018 8064      		ori r24,lo8(64)
 2026 001a 8093 7A00 		sts 122,r24
 2027               	.L129:
 2028               	.LSM263:
 2029 001e 8091 7A00 		lds r24,122
 2030 0022 86FD      		sbrc r24,6
 2031 0024 00C0      		rjmp .L129
 2032               	/* epilogue start */
 2033               	.LSM264:
 2034 0026 0895      		ret
 2035               	.LFE36:
 2037               		.section	.text.readKanal,"ax",@progbits
 2038               	.global	readKanal
 2040               	readKanal:
 2041               	.LFB37:
 2042               	.LSM265:
 2043               	.LVL148:
 2044               	/* prologue: function */
 2045               	/* frame size = 0 */
 2046               	.LSM266:
 2047 0000 9091 7C00 		lds r25,124
 2048 0004 982B      		or r25,r24
 2049 0006 9093 7C00 		sts 124,r25
 2050 000a 40E0      		ldi r20,lo8(0)
 2051               	.LVL149:
 2052 000c 20E0      		ldi r18,lo8(0)
 2053 000e 30E0      		ldi r19,hi8(0)
 2054               	.LVL150:
 2055               	.L134:
 2056               	.LSM267:
 2057 0010 8091 7A00 		lds r24,122
 2058               	.LVL151:
 2059 0014 8064      		ori r24,lo8(64)
 2060 0016 8093 7A00 		sts 122,r24
 2061               	.L133:
 2062               	.LSM268:
 2063 001a 8091 7A00 		lds r24,122
 2064 001e 86FD      		sbrc r24,6
 2065 0020 00C0      		rjmp .L133
 2066               	.LSM269:
 2067 0022 8091 7800 		lds r24,120
 2068 0026 9091 7900 		lds r25,(120)+1
 2069 002a 280F      		add r18,r24
 2070 002c 391F      		adc r19,r25
 2071               	.LSM270:
 2072 002e 4F5F      		subi r20,lo8(-(1))
 2073 0030 4430      		cpi r20,lo8(4)
 2074 0032 01F4      		brne .L134
 2075 0034 3695      		lsr r19
 2076 0036 2795      		ror r18
 2077 0038 3695      		lsr r19
 2078 003a 2795      		ror r18
 2079               	.LVL152:
 2080               	.LSM271:
 2081 003c C901      		movw r24,r18
 2082               	/* epilogue start */
 2083 003e 0895      		ret
 2084               	.LFE37:
 2086               		.section	.text.closeADC,"ax",@progbits
 2087               	.global	closeADC
 2089               	closeADC:
 2090               	.LFB38:
 2091               	.LSM272:
 2092               	/* prologue: function */
 2093               	/* frame size = 0 */
 2094               	.LSM273:
 2095 0000 EAE7      		ldi r30,lo8(122)
 2096 0002 F0E0      		ldi r31,hi8(122)
 2097 0004 8081      		ld r24,Z
 2098 0006 8F77      		andi r24,lo8(127)
 2099 0008 8083      		st Z,r24
 2100               	/* epilogue start */
 2101               	.LSM274:
 2102 000a 0895      		ret
 2103               	.LFE38:
 2105               		.section	.text.readKanalOrig,"ax",@progbits
 2106               	.global	readKanalOrig
 2108               	readKanalOrig:
 2109               	.LFB39:
 2110               	.LSM275:
 2111               	.LVL153:
 2112               	/* prologue: function */
 2113               	/* frame size = 0 */
 2114               	.LSM276:
 2115 0000 95E8      		ldi r25,lo8(-123)
 2116 0002 9093 7A00 		sts 122,r25
 2117               	.LSM277:
 2118 0006 8093 7C00 		sts 124,r24
 2119               	.LSM278:
 2120 000a 8091 7C00 		lds r24,124
 2121               	.LVL154:
 2122 000e 8064      		ori r24,lo8(64)
 2123 0010 8093 7C00 		sts 124,r24
 2124               	.LSM279:
 2125 0014 8091 7A00 		lds r24,122
 2126 0018 8064      		ori r24,lo8(64)
 2127 001a 8093 7A00 		sts 122,r24
 2128               	.L141:
 2129               	.LSM280:
 2130 001e 8091 7A00 		lds r24,122
 2131 0022 86FD      		sbrc r24,6
 2132 0024 00C0      		rjmp .L141
 2133 0026 40E0      		ldi r20,lo8(0)
 2134               	.LVL155:
 2135 0028 20E0      		ldi r18,lo8(0)
 2136 002a 30E0      		ldi r19,hi8(0)
 2137               	.LVL156:
 2138               	.L143:
 2139               	.LSM281:
 2140 002c 8091 7A00 		lds r24,122
 2141 0030 8064      		ori r24,lo8(64)
 2142 0032 8093 7A00 		sts 122,r24
 2143               	.L142:
 2144               	.LSM282:
 2145 0036 8091 7A00 		lds r24,122
 2146 003a 86FD      		sbrc r24,6
 2147 003c 00C0      		rjmp .L142
 2148               	.LSM283:
 2149 003e 8091 7800 		lds r24,120
 2150 0042 9091 7900 		lds r25,(120)+1
 2151 0046 280F      		add r18,r24
 2152 0048 391F      		adc r19,r25
 2153               	.LSM284:
 2154 004a 4F5F      		subi r20,lo8(-(1))
 2155 004c 4430      		cpi r20,lo8(4)
 2156 004e 01F4      		brne .L143
 2157               	.LSM285:
 2158 0050 8091 7A00 		lds r24,122
 2159 0054 8F77      		andi r24,lo8(127)
 2160 0056 8093 7A00 		sts 122,r24
 2161 005a 3695      		lsr r19
 2162 005c 2795      		ror r18
 2163 005e 3695      		lsr r19
 2164 0060 2795      		ror r18
 2165               	.LVL157:
 2166               	.LSM286:
 2167 0062 C901      		movw r24,r18
 2168               	/* epilogue start */
 2169 0064 0895      		ret
 2170               	.LFE39:
 2172               		.section	.text.usb_init,"ax",@progbits
 2173               	.global	usb_init
 2175               	usb_init:
 2176               	.LFB40:
 2177               	.LSM287:
 2178               	/* prologue: function */
 2179               	/* frame size = 0 */
 2180               	.LSM288:
 2181 0000 81E8      		ldi r24,lo8(-127)
 2182 0002 8093 D700 		sts 215,r24
 2183               	.LSM289:
 2184 0006 80EA      		ldi r24,lo8(-96)
 2185 0008 8093 D800 		sts 216,r24
 2186               	.LSM290:
 2187 000c 86E1      		ldi r24,lo8(22)
 2188 000e 89BD      		out 73-32,r24
 2189               	.L149:
 2190               	.LSM291:
 2191 0010 09B4      		in __tmp_reg__,73-32
 2192 0012 00FE      		sbrs __tmp_reg__,0
 2193 0014 00C0      		rjmp .L149
 2194               	.LSM292:
 2195 0016 80E9      		ldi r24,lo8(-112)
 2196 0018 8093 D800 		sts 216,r24
 2197               	.LSM293:
 2198 001c 1092 E000 		sts 224,__zero_reg__
 2199               	.LSM294:
 2200 0020 1092 0000 		sts usb_configuration,__zero_reg__
 2201               	.LSM295:
 2202 0024 8CE0      		ldi r24,lo8(12)
 2203 0026 8093 E200 		sts 226,r24
 2204               	.LSM296:
 2205               	/* #APP */
 2206               	 ;  270 "usb_rawhid.c" 1
 2207 002a 7894      		sei
 2208               	 ;  0 "" 2
 2209               	/* epilogue start */
 2210               	.LSM297:
 2211               	/* #NOAPP */
 2212 002c 0895      		ret
 2213               	.LFE40:
 2215               		.section	.text.usb_configured,"ax",@progbits
 2216               	.global	usb_configured
 2218               	usb_configured:
 2219               	.LFB41:
 2220               	.LSM298:
 2221               	/* prologue: function */
 2222               	/* frame size = 0 */
 2223               	.LSM299:
 2224 0000 8091 0000 		lds r24,usb_configuration
 2225               	/* epilogue start */
 2226               	.LSM300:
 2227 0004 0895      		ret
 2228               	.LFE41:
 2230               		.section	.text.usb_rawhid_recv,"ax",@progbits
 2231               	.global	usb_rawhid_recv
 2233               	usb_rawhid_recv:
 2234               	.LFB42:
 2235               	.LSM301:
 2236               	.LVL158:
 2237               	/* prologue: function */
 2238               	/* frame size = 0 */
 2239 0000 DC01      		movw r26,r24
 2240               	.LSM302:
 2241 0002 8091 0000 		lds r24,usb_configuration
 2242               	.LVL159:
 2243 0006 8823      		tst r24
 2244 0008 01F4      		brne .+2
 2245 000a 00C0      		rjmp .L155
 2246               	.LSM303:
 2247 000c 9FB7      		in r25,__SREG__
 2248               	.LVL160:
 2249               	.LSM304:
 2250               	/* #APP */
 2251               	 ;  289 "usb_rawhid.c" 1
 2252 000e F894      		cli
 2253               	 ;  0 "" 2
 2254               	.LSM305:
 2255               	/* #NOAPP */
 2256 0010 6093 0000 		sts rx_timeout_count,r22
 2257               	.LSM306:
 2258 0014 82E0      		ldi r24,lo8(2)
 2259 0016 8093 E900 		sts 233,r24
 2260               	.LSM307:
 2261 001a 22E0      		ldi r18,lo8(2)
 2262               	.L159:
 2263               	.LSM308:
 2264 001c 8091 E800 		lds r24,232
 2265 0020 85FD      		sbrc r24,5
 2266 0022 00C0      		rjmp .L156
 2267               	.LSM309:
 2268 0024 9FBF      		out __SREG__,r25
 2269               	.LSM310:
 2270 0026 8091 0000 		lds r24,rx_timeout_count
 2271 002a 8823      		tst r24
 2272 002c 01F4      		brne .+2
 2273 002e 00C0      		rjmp .L158
 2274               	.LSM311:
 2275 0030 8091 0000 		lds r24,usb_configuration
 2276 0034 8823      		tst r24
 2277 0036 01F4      		brne .+2
 2278 0038 00C0      		rjmp .L155
 2279               	.LSM312:
 2280 003a 9FB7      		in r25,__SREG__
 2281               	.LSM313:
 2282               	/* #APP */
 2283               	 ;  300 "usb_rawhid.c" 1
 2284 003c F894      		cli
 2285               	 ;  0 "" 2
 2286               	.LSM314:
 2287               	/* #NOAPP */
 2288 003e 2093 E900 		sts 233,r18
 2289 0042 00C0      		rjmp .L159
 2290               	.L156:
 2291               	.LSM315:
 2292 0044 8091 F100 		lds r24,241
 2293 0048 FD01      		movw r30,r26
 2294 004a 8193      		st Z+,r24
 2295               	.LSM316:
 2296 004c 8091 F100 		lds r24,241
 2297 0050 1196      		adiw r26,1
 2298 0052 8C93      		st X,r24
 2299 0054 DF01      		movw r26,r30
 2300 0056 1196      		adiw r26,1
 2301               	.LSM317:
 2302 0058 8091 F100 		lds r24,241
 2303 005c 8183      		std Z+1,r24
 2304 005e FD01      		movw r30,r26
 2305 0060 3196      		adiw r30,1
 2306               	.LVL161:
 2307               	.LSM318:
 2308 0062 8091 F100 		lds r24,241
 2309 0066 1196      		adiw r26,1
 2310 0068 8C93      		st X,r24
 2311 006a DF01      		movw r26,r30
 2312 006c 1196      		adiw r26,1
 2313               	.LVL162:
 2314               	.LSM319:
 2315 006e 8091 F100 		lds r24,241
 2316 0072 8183      		std Z+1,r24
 2317 0074 FD01      		movw r30,r26
 2318 0076 3196      		adiw r30,1
 2319               	.LVL163:
 2320               	.LSM320:
 2321 0078 8091 F100 		lds r24,241
 2322 007c 1196      		adiw r26,1
 2323 007e 8C93      		st X,r24
 2324 0080 DF01      		movw r26,r30
 2325 0082 1196      		adiw r26,1
 2326               	.LVL164:
 2327               	.LSM321:
 2328 0084 8091 F100 		lds r24,241
 2329 0088 8183      		std Z+1,r24
 2330 008a FD01      		movw r30,r26
 2331 008c 3196      		adiw r30,1
 2332               	.LVL165:
 2333               	.LSM322:
 2334 008e 8091 F100 		lds r24,241
 2335 0092 1196      		adiw r26,1
 2336 0094 8C93      		st X,r24
 2337 0096 DF01      		movw r26,r30
 2338 0098 1196      		adiw r26,1
 2339               	.LVL166:
 2340               	.LSM323:
 2341 009a 8091 F100 		lds r24,241
 2342 009e 8183      		std Z+1,r24
 2343 00a0 FD01      		movw r30,r26
 2344 00a2 3196      		adiw r30,1
 2345               	.LVL167:
 2346               	.LSM324:
 2347 00a4 8091 F100 		lds r24,241
 2348 00a8 1196      		adiw r26,1
 2349 00aa 8C93      		st X,r24
 2350 00ac DF01      		movw r26,r30
 2351 00ae 1196      		adiw r26,1
 2352               	.LVL168:
 2353               	.LSM325:
 2354 00b0 8091 F100 		lds r24,241
 2355 00b4 8183      		std Z+1,r24
 2356 00b6 FD01      		movw r30,r26
 2357 00b8 3196      		adiw r30,1
 2358               	.LVL169:
 2359               	.LSM326:
 2360 00ba 8091 F100 		lds r24,241
 2361 00be 1196      		adiw r26,1
 2362 00c0 8C93      		st X,r24
 2363 00c2 DF01      		movw r26,r30
 2364 00c4 1196      		adiw r26,1
 2365               	.LVL170:
 2366               	.LSM327:
 2367 00c6 8091 F100 		lds r24,241
 2368 00ca 8183      		std Z+1,r24
 2369 00cc FD01      		movw r30,r26
 2370 00ce 3196      		adiw r30,1
 2371               	.LVL171:
 2372               	.LSM328:
 2373 00d0 8091 F100 		lds r24,241
 2374 00d4 1196      		adiw r26,1
 2375 00d6 8C93      		st X,r24
 2376 00d8 DF01      		movw r26,r30
 2377 00da 1196      		adiw r26,1
 2378               	.LVL172:
 2379               	.LSM329:
 2380 00dc 8091 F100 		lds r24,241
 2381 00e0 8183      		std Z+1,r24
 2382 00e2 FD01      		movw r30,r26
 2383 00e4 3196      		adiw r30,1
 2384               	.LVL173:
 2385               	.LSM330:
 2386 00e6 8091 F100 		lds r24,241
 2387 00ea 1196      		adiw r26,1
 2388 00ec 8C93      		st X,r24
 2389 00ee DF01      		movw r26,r30
 2390 00f0 1196      		adiw r26,1
 2391               	.LVL174:
 2392               	.LSM331:
 2393 00f2 8091 F100 		lds r24,241
 2394 00f6 8183      		std Z+1,r24
 2395 00f8 FD01      		movw r30,r26
 2396 00fa 3196      		adiw r30,1
 2397               	.LVL175:
 2398               	.LSM332:
 2399 00fc 8091 F100 		lds r24,241
 2400 0100 1196      		adiw r26,1
 2401 0102 8C93      		st X,r24
 2402 0104 DF01      		movw r26,r30
 2403 0106 1196      		adiw r26,1
 2404               	.LVL176:
 2405               	.LSM333:
 2406 0108 8091 F100 		lds r24,241
 2407 010c 8183      		std Z+1,r24
 2408 010e FD01      		movw r30,r26
 2409 0110 3196      		adiw r30,1
 2410               	.LVL177:
 2411               	.LSM334:
 2412 0112 8091 F100 		lds r24,241
 2413 0116 1196      		adiw r26,1
 2414 0118 8C93      		st X,r24
 2415 011a DF01      		movw r26,r30
 2416 011c 1196      		adiw r26,1
 2417               	.LVL178:
 2418               	.LSM335:
 2419 011e 8091 F100 		lds r24,241
 2420 0122 8183      		std Z+1,r24
 2421 0124 FD01      		movw r30,r26
 2422 0126 3196      		adiw r30,1
 2423               	.LVL179:
 2424               	.LSM336:
 2425 0128 8091 F100 		lds r24,241
 2426 012c 1196      		adiw r26,1
 2427 012e 8C93      		st X,r24
 2428 0130 DF01      		movw r26,r30
 2429 0132 1196      		adiw r26,1
 2430               	.LVL180:
 2431               	.LSM337:
 2432 0134 8091 F100 		lds r24,241
 2433 0138 8183      		std Z+1,r24
 2434 013a FD01      		movw r30,r26
 2435 013c 3196      		adiw r30,1
 2436               	.LVL181:
 2437               	.LSM338:
 2438 013e 8091 F100 		lds r24,241
 2439 0142 1196      		adiw r26,1
 2440 0144 8C93      		st X,r24
 2441 0146 DF01      		movw r26,r30
 2442 0148 1196      		adiw r26,1
 2443               	.LVL182:
 2444               	.LSM339:
 2445 014a 8091 F100 		lds r24,241
 2446 014e 8183      		std Z+1,r24
 2447 0150 FD01      		movw r30,r26
 2448 0152 3196      		adiw r30,1
 2449               	.LVL183:
 2450               	.LSM340:
 2451 0154 8091 F100 		lds r24,241
 2452 0158 1196      		adiw r26,1
 2453 015a 8C93      		st X,r24
 2454 015c DF01      		movw r26,r30
 2455 015e 1196      		adiw r26,1
 2456               	.LVL184:
 2457               	.LSM341:
 2458 0160 8091 F100 		lds r24,241
 2459 0164 8183      		std Z+1,r24
 2460 0166 FD01      		movw r30,r26
 2461 0168 3196      		adiw r30,1
 2462               	.LVL185:
 2463               	.LSM342:
 2464 016a 8091 F100 		lds r24,241
 2465 016e 1196      		adiw r26,1
 2466 0170 8C93      		st X,r24
 2467 0172 DF01      		movw r26,r30
 2468 0174 1196      		adiw r26,1
 2469               	.LVL186:
 2470               	.LSM343:
 2471 0176 8091 F100 		lds r24,241
 2472 017a 8183      		std Z+1,r24
 2473 017c FD01      		movw r30,r26
 2474 017e 3196      		adiw r30,1
 2475               	.LVL187:
 2476               	.LSM344:
 2477 0180 8091 F100 		lds r24,241
 2478 0184 1196      		adiw r26,1
 2479 0186 8C93      		st X,r24
 2480               	.LSM345:
 2481 0188 8091 F100 		lds r24,241
 2482 018c 8183      		std Z+1,r24
 2483               	.LSM346:
 2484 018e 8091 F100 		lds r24,241
 2485 0192 8283      		std Z+2,r24
 2486               	.LSM347:
 2487 0194 8BE6      		ldi r24,lo8(107)
 2488 0196 8093 E800 		sts 232,r24
 2489               	.LSM348:
 2490 019a 9FBF      		out __SREG__,r25
 2491 019c 80E2      		ldi r24,lo8(32)
 2492 019e 0895      		ret
 2493               	.LVL188:
 2494               	.L155:
 2495               	.LSM349:
 2496 01a0 8FEF      		ldi r24,lo8(-1)
 2497               	.L158:
 2498               	.LSM350:
 2499 01a2 0895      		ret
 2500               	.LFE42:
 2502               		.section	.text.usb_rawhid_send,"ax",@progbits
 2503               	.global	usb_rawhid_send
 2505               	usb_rawhid_send:
 2506               	.LFB43:
 2507               	.LSM351:
 2508               	.LVL189:
 2509               	/* prologue: function */
 2510               	/* frame size = 0 */
 2511 0000 DC01      		movw r26,r24
 2512               	.LSM352:
 2513 0002 8091 0000 		lds r24,usb_configuration
 2514               	.LVL190:
 2515 0006 8823      		tst r24
 2516 0008 01F4      		brne .+2
 2517 000a 00C0      		rjmp .L162
 2518               	.LSM353:
 2519 000c 9FB7      		in r25,__SREG__
 2520               	.LVL191:
 2521               	.LSM354:
 2522               	/* #APP */
 2523               	 ;  510 "usb_rawhid.c" 1
 2524 000e F894      		cli
 2525               	 ;  0 "" 2
 2526               	.LSM355:
 2527               	/* #NOAPP */
 2528 0010 6093 0000 		sts tx_timeout_count,r22
 2529               	.LSM356:
 2530 0014 81E0      		ldi r24,lo8(1)
 2531 0016 8093 E900 		sts 233,r24
 2532               	.LSM357:
 2533 001a 21E0      		ldi r18,lo8(1)
 2534               	.L166:
 2535               	.LSM358:
 2536 001c 8091 E800 		lds r24,232
 2537 0020 85FD      		sbrc r24,5
 2538 0022 00C0      		rjmp .L163
 2539               	.LSM359:
 2540 0024 9FBF      		out __SREG__,r25
 2541               	.LSM360:
 2542 0026 8091 0000 		lds r24,tx_timeout_count
 2543 002a 8823      		tst r24
 2544 002c 01F4      		brne .+2
 2545 002e 00C0      		rjmp .L165
 2546               	.LSM361:
 2547 0030 8091 0000 		lds r24,usb_configuration
 2548 0034 8823      		tst r24
 2549 0036 01F4      		brne .+2
 2550 0038 00C0      		rjmp .L162
 2551               	.LSM362:
 2552 003a 9FB7      		in r25,__SREG__
 2553               	.LSM363:
 2554               	/* #APP */
 2555               	 ;  521 "usb_rawhid.c" 1
 2556 003c F894      		cli
 2557               	 ;  0 "" 2
 2558               	.LSM364:
 2559               	/* #NOAPP */
 2560 003e 2093 E900 		sts 233,r18
 2561 0042 00C0      		rjmp .L166
 2562               	.L163:
 2563               	.LSM365:
 2564 0044 FD01      		movw r30,r26
 2565 0046 8191      		ld r24,Z+
 2566 0048 8093 F100 		sts 241,r24
 2567               	.LSM366:
 2568 004c 1196      		adiw r26,1
 2569 004e 8C91      		ld r24,X
 2570 0050 8093 F100 		sts 241,r24
 2571 0054 DF01      		movw r26,r30
 2572 0056 1196      		adiw r26,1
 2573               	.LSM367:
 2574 0058 8181      		ldd r24,Z+1
 2575 005a 8093 F100 		sts 241,r24
 2576 005e FD01      		movw r30,r26
 2577 0060 3196      		adiw r30,1
 2578               	.LVL192:
 2579               	.LSM368:
 2580 0062 1196      		adiw r26,1
 2581 0064 8C91      		ld r24,X
 2582 0066 8093 F100 		sts 241,r24
 2583 006a DF01      		movw r26,r30
 2584 006c 1196      		adiw r26,1
 2585               	.LVL193:
 2586               	.LSM369:
 2587 006e 8181      		ldd r24,Z+1
 2588 0070 8093 F100 		sts 241,r24
 2589 0074 FD01      		movw r30,r26
 2590 0076 3196      		adiw r30,1
 2591               	.LVL194:
 2592               	.LSM370:
 2593 0078 1196      		adiw r26,1
 2594 007a 8C91      		ld r24,X
 2595 007c 8093 F100 		sts 241,r24
 2596 0080 DF01      		movw r26,r30
 2597 0082 1196      		adiw r26,1
 2598               	.LVL195:
 2599               	.LSM371:
 2600 0084 8181      		ldd r24,Z+1
 2601 0086 8093 F100 		sts 241,r24
 2602 008a FD01      		movw r30,r26
 2603 008c 3196      		adiw r30,1
 2604               	.LVL196:
 2605               	.LSM372:
 2606 008e 1196      		adiw r26,1
 2607 0090 8C91      		ld r24,X
 2608 0092 8093 F100 		sts 241,r24
 2609 0096 DF01      		movw r26,r30
 2610 0098 1196      		adiw r26,1
 2611               	.LVL197:
 2612               	.LSM373:
 2613 009a 8181      		ldd r24,Z+1
 2614 009c 8093 F100 		sts 241,r24
 2615 00a0 FD01      		movw r30,r26
 2616 00a2 3196      		adiw r30,1
 2617               	.LVL198:
 2618               	.LSM374:
 2619 00a4 1196      		adiw r26,1
 2620 00a6 8C91      		ld r24,X
 2621 00a8 8093 F100 		sts 241,r24
 2622 00ac DF01      		movw r26,r30
 2623 00ae 1196      		adiw r26,1
 2624               	.LVL199:
 2625               	.LSM375:
 2626 00b0 8181      		ldd r24,Z+1
 2627 00b2 8093 F100 		sts 241,r24
 2628 00b6 FD01      		movw r30,r26
 2629 00b8 3196      		adiw r30,1
 2630               	.LVL200:
 2631               	.LSM376:
 2632 00ba 1196      		adiw r26,1
 2633 00bc 8C91      		ld r24,X
 2634 00be 8093 F100 		sts 241,r24
 2635 00c2 DF01      		movw r26,r30
 2636 00c4 1196      		adiw r26,1
 2637               	.LVL201:
 2638               	.LSM377:
 2639 00c6 8181      		ldd r24,Z+1
 2640 00c8 8093 F100 		sts 241,r24
 2641 00cc FD01      		movw r30,r26
 2642 00ce 3196      		adiw r30,1
 2643               	.LVL202:
 2644               	.LSM378:
 2645 00d0 1196      		adiw r26,1
 2646 00d2 8C91      		ld r24,X
 2647 00d4 8093 F100 		sts 241,r24
 2648 00d8 DF01      		movw r26,r30
 2649 00da 1196      		adiw r26,1
 2650               	.LVL203:
 2651               	.LSM379:
 2652 00dc 8181      		ldd r24,Z+1
 2653 00de 8093 F100 		sts 241,r24
 2654 00e2 FD01      		movw r30,r26
 2655 00e4 3196      		adiw r30,1
 2656               	.LVL204:
 2657               	.LSM380:
 2658 00e6 1196      		adiw r26,1
 2659 00e8 8C91      		ld r24,X
 2660 00ea 8093 F100 		sts 241,r24
 2661 00ee DF01      		movw r26,r30
 2662 00f0 1196      		adiw r26,1
 2663               	.LVL205:
 2664               	.LSM381:
 2665 00f2 8181      		ldd r24,Z+1
 2666 00f4 8093 F100 		sts 241,r24
 2667 00f8 FD01      		movw r30,r26
 2668 00fa 3196      		adiw r30,1
 2669               	.LVL206:
 2670               	.LSM382:
 2671 00fc 1196      		adiw r26,1
 2672 00fe 8C91      		ld r24,X
 2673 0100 8093 F100 		sts 241,r24
 2674 0104 DF01      		movw r26,r30
 2675 0106 1196      		adiw r26,1
 2676               	.LVL207:
 2677               	.LSM383:
 2678 0108 8181      		ldd r24,Z+1
 2679 010a 8093 F100 		sts 241,r24
 2680 010e FD01      		movw r30,r26
 2681 0110 3196      		adiw r30,1
 2682               	.LVL208:
 2683               	.LSM384:
 2684 0112 1196      		adiw r26,1
 2685 0114 8C91      		ld r24,X
 2686 0116 8093 F100 		sts 241,r24
 2687 011a DF01      		movw r26,r30
 2688 011c 1196      		adiw r26,1
 2689               	.LVL209:
 2690               	.LSM385:
 2691 011e 8181      		ldd r24,Z+1
 2692 0120 8093 F100 		sts 241,r24
 2693 0124 FD01      		movw r30,r26
 2694 0126 3196      		adiw r30,1
 2695               	.LVL210:
 2696               	.LSM386:
 2697 0128 1196      		adiw r26,1
 2698 012a 8C91      		ld r24,X
 2699 012c 8093 F100 		sts 241,r24
 2700 0130 DF01      		movw r26,r30
 2701 0132 1196      		adiw r26,1
 2702               	.LVL211:
 2703               	.LSM387:
 2704 0134 8181      		ldd r24,Z+1
 2705 0136 8093 F100 		sts 241,r24
 2706 013a FD01      		movw r30,r26
 2707 013c 3196      		adiw r30,1
 2708               	.LVL212:
 2709               	.LSM388:
 2710 013e 1196      		adiw r26,1
 2711 0140 8C91      		ld r24,X
 2712 0142 8093 F100 		sts 241,r24
 2713 0146 DF01      		movw r26,r30
 2714 0148 1196      		adiw r26,1
 2715               	.LVL213:
 2716               	.LSM389:
 2717 014a 8181      		ldd r24,Z+1
 2718 014c 8093 F100 		sts 241,r24
 2719 0150 FD01      		movw r30,r26
 2720 0152 3196      		adiw r30,1
 2721               	.LVL214:
 2722               	.LSM390:
 2723 0154 1196      		adiw r26,1
 2724 0156 8C91      		ld r24,X
 2725 0158 8093 F100 		sts 241,r24
 2726 015c DF01      		movw r26,r30
 2727 015e 1196      		adiw r26,1
 2728               	.LVL215:
 2729               	.LSM391:
 2730 0160 8181      		ldd r24,Z+1
 2731 0162 8093 F100 		sts 241,r24
 2732 0166 FD01      		movw r30,r26
 2733 0168 3196      		adiw r30,1
 2734               	.LVL216:
 2735               	.LSM392:
 2736 016a 1196      		adiw r26,1
 2737 016c 8C91      		ld r24,X
 2738 016e 8093 F100 		sts 241,r24
 2739 0172 DF01      		movw r26,r30
 2740 0174 1196      		adiw r26,1
 2741               	.LVL217:
 2742               	.LSM393:
 2743 0176 8181      		ldd r24,Z+1
 2744 0178 8093 F100 		sts 241,r24
 2745 017c FD01      		movw r30,r26
 2746 017e 3196      		adiw r30,1
 2747               	.LVL218:
 2748               	.LSM394:
 2749 0180 1196      		adiw r26,1
 2750 0182 8C91      		ld r24,X
 2751 0184 8093 F100 		sts 241,r24
 2752               	.LSM395:
 2753 0188 8181      		ldd r24,Z+1
 2754 018a 8093 F100 		sts 241,r24
 2755               	.LSM396:
 2756 018e 8281      		ldd r24,Z+2
 2757 0190 8093 F100 		sts 241,r24
 2758               	.LSM397:
 2759 0194 8AE3      		ldi r24,lo8(58)
 2760 0196 8093 E800 		sts 232,r24
 2761               	.LSM398:
 2762 019a 9FBF      		out __SREG__,r25
 2763 019c 80E2      		ldi r24,lo8(32)
 2764 019e 0895      		ret
 2765               	.LVL219:
 2766               	.L162:
 2767               	.LSM399:
 2768 01a0 8FEF      		ldi r24,lo8(-1)
 2769               	.L165:
 2770               	.LSM400:
 2771 01a2 0895      		ret
 2772               	.LFE43:
 2774               		.section	.text.__vector_10,"ax",@progbits
 2775               	.global	__vector_10
 2777               	__vector_10:
 2778               	.LFB44:
 2779               	.LSM401:
 2780 0000 1F92      		push __zero_reg__
 2781 0002 0F92      		push r0
 2782 0004 0FB6      		in r0,__SREG__
 2783 0006 0F92      		push r0
 2784 0008 1124      		clr __zero_reg__
 2785 000a 8F93      		push r24
 2786 000c 9F93      		push r25
 2787               	/* prologue: Signal */
 2788               	/* frame size = 0 */
 2789               	.LSM402:
 2790 000e 8091 E100 		lds r24,225
 2791               	.LVL220:
 2792               	.LSM403:
 2793 0012 1092 E100 		sts 225,__zero_reg__
 2794               	.LSM404:
 2795 0016 982F      		mov r25,r24
 2796 0018 93FF      		sbrs r25,3
 2797 001a 00C0      		rjmp .L169
 2798               	.LSM405:
 2799 001c 1092 E900 		sts 233,__zero_reg__
 2800               	.LSM406:
 2801 0020 81E0      		ldi r24,lo8(1)
 2802               	.LVL221:
 2803 0022 8093 EB00 		sts 235,r24
 2804               	.LSM407:
 2805 0026 1092 EC00 		sts 236,__zero_reg__
 2806               	.LSM408:
 2807 002a 82E2      		ldi r24,lo8(34)
 2808 002c 8093 ED00 		sts 237,r24
 2809               	.LSM409:
 2810 0030 88E0      		ldi r24,lo8(8)
 2811 0032 8093 F000 		sts 240,r24
 2812               	.LSM410:
 2813 0036 1092 0000 		sts usb_configuration,__zero_reg__
 2814               	.LVL222:
 2815               	.L169:
 2816               	.LSM411:
 2817 003a 92FF      		sbrs r25,2
 2818 003c 00C0      		rjmp .L172
 2819 003e 8091 0000 		lds r24,usb_configuration
 2820               	.LVL223:
 2821 0042 8823      		tst r24
 2822 0044 01F0      		breq .L172
 2823               	.LSM412:
 2824 0046 8091 0000 		lds r24,rx_timeout_count
 2825               	.LVL224:
 2826               	.LSM413:
 2827 004a 8823      		tst r24
 2828 004c 01F0      		breq .L171
 2829 004e 8150      		subi r24,lo8(-(-1))
 2830 0050 8093 0000 		sts rx_timeout_count,r24
 2831               	.L171:
 2832               	.LSM414:
 2833 0054 8091 0000 		lds r24,tx_timeout_count
 2834               	.LVL225:
 2835               	.LSM415:
 2836 0058 8823      		tst r24
 2837 005a 01F0      		breq .L172
 2838 005c 8150      		subi r24,lo8(-(-1))
 2839 005e 8093 0000 		sts tx_timeout_count,r24
 2840               	.LVL226:
 2841               	.L172:
 2842               	/* epilogue start */
 2843               	.LSM416:
 2844 0062 9F91      		pop r25
 2845 0064 8F91      		pop r24
 2846               	.LVL227:
 2847 0066 0F90      		pop r0
 2848 0068 0FBE      		out __SREG__,r0
 2849 006a 0F90      		pop r0
 2850 006c 1F90      		pop __zero_reg__
 2851 006e 1895      		reti
 2852               	.LFE44:
 2854               		.section	.text.__vector_11,"ax",@progbits
 2855               	.global	__vector_11
 2857               	__vector_11:
 2858               	.LFB49:
 2859               	.LSM417:
 2860 0000 1F92      		push __zero_reg__
 2861 0002 0F92      		push r0
 2862 0004 0FB6      		in r0,__SREG__
 2863 0006 0F92      		push r0
 2864 0008 0BB6      		in r0,91-32
 2865 000a 0F92      		push r0
 2866 000c 1124      		clr __zero_reg__
 2867 000e 0F93      		push r16
 2868 0010 1F93      		push r17
 2869 0012 2F93      		push r18
 2870 0014 3F93      		push r19
 2871 0016 4F93      		push r20
 2872 0018 5F93      		push r21
 2873 001a 6F93      		push r22
 2874 001c 7F93      		push r23
 2875 001e 8F93      		push r24
 2876 0020 9F93      		push r25
 2877 0022 AF93      		push r26
 2878 0024 BF93      		push r27
 2879 0026 EF93      		push r30
 2880 0028 FF93      		push r31
 2881               	/* prologue: Signal */
 2882               	/* frame size = 0 */
 2883               	.LSM418:
 2884 002a 1092 E900 		sts 233,__zero_reg__
 2885               	.LSM419:
 2886 002e 8091 E800 		lds r24,232
 2887               	.LVL228:
 2888               	.LSM420:
 2889 0032 83FF      		sbrs r24,3
 2890 0034 00C0      		rjmp .L174
 2891               	.LSM421:
 2892 0036 4091 F100 		lds r20,241
 2893               	.LVL229:
 2894               	.LSM422:
 2895 003a 3091 F100 		lds r19,241
 2896               	.LVL230:
 2897               	.LSM423:
 2898 003e 8091 F100 		lds r24,241
 2899               	.LVL231:
 2900 0042 A82F      		mov r26,r24
 2901               	.LVL232:
 2902 0044 B0E0      		ldi r27,lo8(0)
 2903               	.LVL233:
 2904               	.LSM424:
 2905 0046 2091 F100 		lds r18,241
 2906 004a 922F      		mov r25,r18
 2907 004c 80E0      		ldi r24,lo8(0)
 2908 004e A82B      		or r26,r24
 2909 0050 B92B      		or r27,r25
 2910               	.LVL234:
 2911               	.LSM425:
 2912 0052 8091 F100 		lds r24,241
 2913 0056 682F      		mov r22,r24
 2914               	.LVL235:
 2915 0058 70E0      		ldi r23,lo8(0)
 2916               	.LVL236:
 2917               	.LSM426:
 2918 005a 2091 F100 		lds r18,241
 2919 005e 922F      		mov r25,r18
 2920 0060 80E0      		ldi r24,lo8(0)
 2921 0062 682B      		or r22,r24
 2922 0064 792B      		or r23,r25
 2923               	.LVL237:
 2924               	.LSM427:
 2925 0066 1091 F100 		lds r17,241
 2926               	.LSM428:
 2927 006a 0091 F100 		lds r16,241
 2928               	.LSM429:
 2929 006e 82EF      		ldi r24,lo8(-14)
 2930 0070 8093 E800 		sts 232,r24
 2931               	.LSM430:
 2932 0074 3630      		cpi r19,lo8(6)
 2933 0076 01F0      		breq .+2
 2934 0078 00C0      		rjmp .L175
 2935 007a 20E0      		ldi r18,lo8(descriptor_list+7)
 2936 007c 30E0      		ldi r19,hi8(descriptor_list+7)
 2937 007e A901      		movw r20,r18
 2938               	.LVL238:
 2939 0080 4550      		subi r20,lo8(-(-5))
 2940 0082 5040      		sbci r21,hi8(-(-5))
 2941               	.LVL239:
 2942               	.L176:
 2943               	.LSM431:
 2944 0084 F901      		movw r30,r18
 2945               	.LVL240:
 2946 0086 3797      		sbiw r30,7
 2947               	.LBB320:
 2948               	.LSM432:
 2949               	/* #APP */
 2950               	 ;  824 "usb_rawhid.c" 1
 2951 0088 8591      		lpm r24, Z+
 2952 008a 9491      		lpm r25, Z
 2953               		
 2954               	 ;  0 "" 2
 2955               	.LVL241:
 2956               	/* #NOAPP */
 2957               	.LBE320:
 2958               	.LSM433:
 2959 008c 8A17      		cp r24,r26
 2960 008e 9B07      		cpc r25,r27
 2961 0090 01F4      		brne .L178
 2962               	.LBB321:
 2963               	.LSM434:
 2964 0092 FA01      		movw r30,r20
 2965               	.LVL242:
 2966               	/* #APP */
 2967               	 ;  830 "usb_rawhid.c" 1
 2968 0094 8591      		lpm r24, Z+
 2969 0096 9491      		lpm r25, Z
 2970               		
 2971               	 ;  0 "" 2
 2972               	.LVL243:
 2973               	/* #NOAPP */
 2974               	.LBE321:
 2975               	.LSM435:
 2976 0098 8617      		cp r24,r22
 2977 009a 9707      		cpc r25,r23
 2978 009c 01F4      		brne .L178
 2979               	.LSM436:
 2980 009e 9A01      		movw r18,r20
 2981               	.LVL244:
 2982 00a0 2E5F      		subi r18,lo8(-(2))
 2983 00a2 3F4F      		sbci r19,hi8(-(2))
 2984               	.LSM437:
 2985 00a4 F901      		movw r30,r18
 2986               	.LVL245:
 2987               	/* #APP */
 2988               	 ;  836 "usb_rawhid.c" 1
 2989 00a6 6591      		lpm r22, Z+
 2990 00a8 7491      		lpm r23, Z
 2991               		
 2992               	 ;  0 "" 2
 2993               	.LVL246:
 2994               	/* #NOAPP */
 2995               	.LBB322:
 2996               	.LSM438:
 2997 00aa 2E5F      		subi r18,lo8(-(2))
 2998 00ac 3F4F      		sbci r19,hi8(-(2))
 2999               	.LVL247:
 3000 00ae F901      		movw r30,r18
 3001               	/* #APP */
 3002               	 ;  838 "usb_rawhid.c" 1
 3003 00b0 4491      		lpm r20, Z
 3004               		
 3005               	 ;  0 "" 2
 3006               	.LVL248:
 3007               	/* #NOAPP */
 3008               	.LBE322:
 3009               	.LSM439:
 3010 00b2 212F      		mov r18,r17
 3011               	.LVL249:
 3012 00b4 30E0      		ldi r19,lo8(0)
 3013               	.LVL250:
 3014               	.LSM440:
 3015 00b6 902F      		mov r25,r16
 3016 00b8 80E0      		ldi r24,lo8(0)
 3017               	.LVL251:
 3018 00ba 282B      		or r18,r24
 3019 00bc 392B      		or r19,r25
 3020 00be 2F3F      		cpi r18,255
 3021 00c0 3105      		cpc r19,__zero_reg__
 3022 00c2 01F0      		breq .L179
 3023 00c4 00F0      		brlo .L179
 3024 00c6 2FEF      		ldi r18,lo8(255)
 3025 00c8 30E0      		ldi r19,hi8(255)
 3026               	.L179:
 3027 00ca 2417      		cp r18,r20
 3028               	.LVL252:
 3029 00cc 00F4      		brsh .L211
 3030 00ce 422F      		mov r20,r18
 3031               	.LVL253:
 3032 00d0 00C0      		rjmp .L211
 3033               	.LVL254:
 3034               	.L178:
 3035 00d2 295F      		subi r18,lo8(-(7))
 3036 00d4 3F4F      		sbci r19,hi8(-(7))
 3037 00d6 495F      		subi r20,lo8(-(7))
 3038 00d8 5F4F      		sbci r21,hi8(-(7))
 3039               	.LSM441:
 3040 00da F0E0      		ldi r31,hi8(descriptor_list+56)
 3041 00dc 2030      		cpi r18,lo8(descriptor_list+56)
 3042 00de 3F07      		cpc r19,r31
 3043 00e0 01F4      		brne .L176
 3044 00e2 00C0      		rjmp .L174
 3045               	.LVL255:
 3046               	.L211:
 3047               	.LBB323:
 3048               	.LBB324:
 3049               	.LSM442:
 3050 00e4 5EEF      		ldi r21,lo8(-2)
 3051               	.LVL256:
 3052               	.L223:
 3053               	.LBE324:
 3054               	.LBE323:
 3055               	.LSM443:
 3056 00e6 8091 E800 		lds r24,232
 3057               	.LVL257:
 3058               	.LSM444:
 3059 00ea 282F      		mov r18,r24
 3060 00ec 30E0      		ldi r19,lo8(0)
 3061               	.LVL258:
 3062 00ee C901      		movw r24,r18
 3063               	.LVL259:
 3064 00f0 8570      		andi r24,lo8(5)
 3065 00f2 9070      		andi r25,hi8(5)
 3066 00f4 892B      		or r24,r25
 3067 00f6 01F0      		breq .L223
 3068               	.LSM445:
 3069 00f8 22FD      		sbrc r18,2
 3070 00fa 00C0      		rjmp .L207
 3071               	.LSM446:
 3072 00fc 342F      		mov r19,r20
 3073               	.LVL260:
 3074 00fe 4132      		cpi r20,lo8(33)
 3075 0100 00F0      		brlo .L183
 3076 0102 30E2      		ldi r19,lo8(32)
 3077               	.L183:
 3078 0104 232F      		mov r18,r19
 3079               	.LVL261:
 3080 0106 CB01      		movw r24,r22
 3081 0108 00C0      		rjmp .L184
 3082               	.LVL262:
 3083               	.L185:
 3084               	.LSM447:
 3085 010a FC01      		movw r30,r24
 3086               	.LVL263:
 3087               	.LBB326:
 3088               	.LSM448:
 3089 010c 0196      		adiw r24,1
 3090               	/* #APP */
 3091               	 ;  852 "usb_rawhid.c" 1
 3092 010e E491      		lpm r30, Z
 3093               		
 3094               	 ;  0 "" 2
 3095               	.LVL264:
 3096               	/* #NOAPP */
 3097               	.LBE326:
 3098 0110 E093 F100 		sts 241,r30
 3099               	.LSM449:
 3100 0114 2150      		subi r18,lo8(-(-1))
 3101               	.LVL265:
 3102               	.L184:
 3103 0116 2223      		tst r18
 3104 0118 01F4      		brne .L185
 3105 011a 630F      		add r22,r19
 3106 011c 711D      		adc r23,__zero_reg__
 3107               	.LVL266:
 3108               	.LSM450:
 3109 011e 431B      		sub r20,r19
 3110               	.LVL267:
 3111               	.LBB327:
 3112               	.LBB325:
 3113               	.LSM451:
 3114 0120 5093 E800 		sts 232,r21
 3115               	.LBE325:
 3116               	.LBE327:
 3117               	.LSM452:
 3118 0124 4423      		tst r20
 3119 0126 01F4      		brne .L223
 3120 0128 3032      		cpi r19,lo8(32)
 3121 012a 01F0      		breq .L223
 3122 012c 00C0      		rjmp .L207
 3123               	.LVL268:
 3124               	.L175:
 3125               	.LSM453:
 3126 012e 3530      		cpi r19,lo8(5)
 3127 0130 01F4      		brne .L186
 3128               	.LBB328:
 3129               	.LBB329:
 3130               	.LSM454:
 3131 0132 8EEF      		ldi r24,lo8(-2)
 3132 0134 8093 E800 		sts 232,r24
 3133               	.L187:
 3134               	.LBE329:
 3135               	.LBE328:
 3136               	.LBB330:
 3137               	.LBB331:
 3138               	.LSM455:
 3139 0138 8091 E800 		lds r24,232
 3140 013c 80FF      		sbrs r24,0
 3141 013e 00C0      		rjmp .L187
 3142               	.LBE331:
 3143               	.LBE330:
 3144               	.LSM456:
 3145 0140 8A2F      		mov r24,r26
 3146               	.LVL269:
 3147 0142 8068      		ori r24,lo8(-128)
 3148 0144 8093 E300 		sts 227,r24
 3149 0148 00C0      		rjmp .L207
 3150               	.LVL270:
 3151               	.L186:
 3152               	.LSM457:
 3153 014a 3930      		cpi r19,lo8(9)
 3154 014c 01F4      		brne .L188
 3155 014e 4423      		tst r20
 3156 0150 01F0      		breq .+2
 3157 0152 00C0      		rjmp .L198
 3158               	.LSM458:
 3159 0154 A093 0000 		sts usb_configuration,r26
 3160               	.LBB332:
 3161               	.LBB333:
 3162               	.LSM459:
 3163 0158 8EEF      		ldi r24,lo8(-2)
 3164 015a 8093 E800 		sts 232,r24
 3165 015e 80E0      		ldi r24,lo8(endpoint_config_table)
 3166 0160 90E0      		ldi r25,hi8(endpoint_config_table)
 3167               	.LVL271:
 3168 0162 21E0      		ldi r18,lo8(1)
 3169               	.LVL272:
 3170               	.L191:
 3171               	.LBE333:
 3172               	.LBE332:
 3173               	.LSM460:
 3174 0164 2093 E900 		sts 233,r18
 3175               	.LBB334:
 3176               	.LSM461:
 3177 0168 FC01      		movw r30,r24
 3178               	.LVL273:
 3179 016a 0196      		adiw r24,1
 3180               	/* #APP */
 3181               	 ;  871 "usb_rawhid.c" 1
 3182 016c E491      		lpm r30, Z
 3183               		
 3184               	 ;  0 "" 2
 3185               	.LVL274:
 3186               	/* #NOAPP */
 3187               	.LBE334:
 3188               	.LSM462:
 3189 016e E093 EB00 		sts 235,r30
 3190               	.LSM463:
 3191 0172 EE23      		tst r30
 3192 0174 01F0      		breq .L190
 3193               	.LBB335:
 3194               	.LSM464:
 3195 0176 AC01      		movw r20,r24
 3196               	.LVL275:
 3197 0178 4F5F      		subi r20,lo8(-(1))
 3198 017a 5F4F      		sbci r21,hi8(-(1))
 3199               	.LVL276:
 3200 017c FC01      		movw r30,r24
 3201               	.LVL277:
 3202               	/* #APP */
 3203               	 ;  874 "usb_rawhid.c" 1
 3204 017e 8491      		lpm r24, Z
 3205               		
 3206               	 ;  0 "" 2
 3207               	.LVL278:
 3208               	/* #NOAPP */
 3209               	.LBE335:
 3210 0180 8093 EC00 		sts 236,r24
 3211               	.LBB336:
 3212               	.LSM465:
 3213 0184 CA01      		movw r24,r20
 3214               	.LVL279:
 3215 0186 0196      		adiw r24,1
 3216               	.LVL280:
 3217 0188 FA01      		movw r30,r20
 3218               	/* #APP */
 3219               	 ;  875 "usb_rawhid.c" 1
 3220 018a 3491      		lpm r19, Z
 3221               		
 3222               	 ;  0 "" 2
 3223               	.LVL281:
 3224               	/* #NOAPP */
 3225               	.LBE336:
 3226 018c 3093 ED00 		sts 237,r19
 3227               	.LVL282:
 3228               	.L190:
 3229               	.LSM466:
 3230 0190 2F5F      		subi r18,lo8(-(1))
 3231 0192 2530      		cpi r18,lo8(5)
 3232 0194 01F4      		brne .L191
 3233               	.LSM467:
 3234 0196 8EE1      		ldi r24,lo8(30)
 3235               	.LVL283:
 3236 0198 00C0      		rjmp .L225
 3237               	.LVL284:
 3238               	.L188:
 3239               	.LSM468:
 3240 019a 3830      		cpi r19,lo8(8)
 3241 019c 01F4      		brne .L192
 3242 019e 4038      		cpi r20,lo8(-128)
 3243 01a0 01F0      		breq .+2
 3244 01a2 00C0      		rjmp .L198
 3245               	.L213:
 3246               	.LBB337:
 3247               	.LBB338:
 3248               	.LSM469:
 3249 01a4 8091 E800 		lds r24,232
 3250 01a8 80FF      		sbrs r24,0
 3251 01aa 00C0      		rjmp .L213
 3252               	.LBE338:
 3253               	.LBE337:
 3254               	.LSM470:
 3255 01ac 8091 0000 		lds r24,usb_configuration
 3256 01b0 8093 F100 		sts 241,r24
 3257 01b4 00C0      		rjmp .L226
 3258               	.L192:
 3259               	.LSM471:
 3260 01b6 3323      		tst r19
 3261 01b8 01F4      		brne .L189
 3262               	.L214:
 3263               	.LBB339:
 3264               	.LBB340:
 3265               	.LSM472:
 3266 01ba 8091 E800 		lds r24,232
 3267 01be 80FF      		sbrs r24,0
 3268 01c0 00C0      		rjmp .L214
 3269               	.LBE340:
 3270               	.LBE339:
 3271               	.LSM473:
 3272 01c2 4238      		cpi r20,lo8(-126)
 3273 01c4 01F0      		breq .L195
 3274 01c6 80E0      		ldi r24,lo8(0)
 3275               	.LVL285:
 3276 01c8 00C0      		rjmp .L196
 3277               	.LVL286:
 3278               	.L195:
 3279               	.LSM474:
 3280 01ca 6093 E900 		sts 233,r22
 3281               	.LSM475:
 3282 01ce 8091 EB00 		lds r24,235
 3283 01d2 90E0      		ldi r25,lo8(0)
 3284 01d4 F5E0      		ldi r31,5
 3285 01d6 9695      	1:	lsr r25
 3286 01d8 8795      		ror r24
 3287 01da FA95      		dec r31
 3288 01dc 01F4      		brne 1b
 3289 01de 8170      		andi r24,lo8(1)
 3290               	.LVL287:
 3291               	.LSM476:
 3292 01e0 1092 E900 		sts 233,__zero_reg__
 3293               	.L196:
 3294               	.LSM477:
 3295 01e4 8093 F100 		sts 241,r24
 3296               	.LSM478:
 3297 01e8 1092 F100 		sts 241,__zero_reg__
 3298 01ec 00C0      		rjmp .L226
 3299               	.LVL288:
 3300               	.L189:
 3301               	.LSM479:
 3302 01ee 3130      		cpi r19,lo8(1)
 3303 01f0 01F0      		breq .L197
 3304 01f2 3330      		cpi r19,lo8(3)
 3305 01f4 01F4      		brne .L198
 3306               	.L197:
 3307 01f6 4230      		cpi r20,lo8(2)
 3308 01f8 01F4      		brne .L198
 3309 01fa AB2B      		or r26,r27
 3310 01fc 01F4      		brne .L198
 3311               	.LSM480:
 3312 01fe 262F      		mov r18,r22
 3313               	.LVL289:
 3314 0200 2F77      		andi r18,lo8(127)
 3315               	.LSM481:
 3316 0202 822F      		mov r24,r18
 3317 0204 8150      		subi r24,lo8(-(-1))
 3318 0206 8430      		cpi r24,lo8(4)
 3319 0208 00F4      		brsh .L198
 3320               	.LBB341:
 3321               	.LBB342:
 3322               	.LSM482:
 3323 020a 8EEF      		ldi r24,lo8(-2)
 3324 020c 8093 E800 		sts 232,r24
 3325               	.LBE342:
 3326               	.LBE341:
 3327               	.LSM483:
 3328 0210 2093 E900 		sts 233,r18
 3329               	.LSM484:
 3330 0214 3330      		cpi r19,lo8(3)
 3331 0216 01F4      		brne .+2
 3332 0218 00C0      		rjmp .L174
 3333               	.L199:
 3334               	.LSM485:
 3335 021a 89E1      		ldi r24,lo8(25)
 3336 021c 8093 EB00 		sts 235,r24
 3337               	.LSM486:
 3338 0220 81E0      		ldi r24,lo8(1)
 3339 0222 90E0      		ldi r25,hi8(1)
 3340 0224 00C0      		rjmp 2f
 3341 0226 880F      	1:	lsl r24
 3342 0228 991F      		rol r25
 3343 022a 2A95      	2:	dec r18
 3344 022c 02F4      		brpl 1b
 3345               	.LVL290:
 3346               	.L225:
 3347 022e 8093 EA00 		sts 234,r24
 3348               	.LSM487:
 3349 0232 1092 EA00 		sts 234,__zero_reg__
 3350 0236 00C0      		rjmp .L207
 3351               	.LVL291:
 3352               	.L198:
 3353               	.LSM488:
 3354 0238 672B      		or r22,r23
 3355 023a 01F4      		brne .L174
 3356               	.LSM489:
 3357 023c 413A      		cpi r20,lo8(-95)
 3358 023e 01F4      		brne .L200
 3359 0240 3130      		cpi r19,lo8(1)
 3360 0242 01F4      		brne .L174
 3361 0244 40E2      		ldi r20,lo8(32)
 3362               	.LVL292:
 3363               	.LBB343:
 3364               	.LBB344:
 3365               	.LSM490:
 3366 0246 5EEF      		ldi r21,lo8(-2)
 3367               	.LVL293:
 3368               	.L224:
 3369               	.LBE344:
 3370               	.LBE343:
 3371               	.LSM491:
 3372 0248 8091 E800 		lds r24,232
 3373               	.LVL294:
 3374               	.LSM492:
 3375 024c 282F      		mov r18,r24
 3376 024e 30E0      		ldi r19,lo8(0)
 3377               	.LVL295:
 3378 0250 C901      		movw r24,r18
 3379               	.LVL296:
 3380 0252 8570      		andi r24,lo8(5)
 3381 0254 9070      		andi r25,hi8(5)
 3382 0256 892B      		or r24,r25
 3383 0258 01F0      		breq .L224
 3384               	.LSM493:
 3385 025a 22FD      		sbrc r18,2
 3386 025c 00C0      		rjmp .L207
 3387               	.LSM494:
 3388 025e 942F      		mov r25,r20
 3389 0260 4132      		cpi r20,lo8(33)
 3390 0262 00F0      		brlo .L202
 3391 0264 90E2      		ldi r25,lo8(32)
 3392               	.L202:
 3393 0266 892F      		mov r24,r25
 3394               	.LVL297:
 3395 0268 00C0      		rjmp .L203
 3396               	.L204:
 3397               	.LSM495:
 3398 026a 1092 F100 		sts 241,__zero_reg__
 3399               	.LSM496:
 3400 026e 8150      		subi r24,lo8(-(-1))
 3401               	.L203:
 3402 0270 8823      		tst r24
 3403 0272 01F4      		brne .L204
 3404               	.LSM497:
 3405 0274 491B      		sub r20,r25
 3406               	.LBB346:
 3407               	.LBB345:
 3408               	.LSM498:
 3409 0276 5093 E800 		sts 232,r21
 3410               	.LBE345:
 3411               	.LBE346:
 3412               	.LSM499:
 3413 027a 4423      		tst r20
 3414 027c 01F4      		brne .L224
 3415 027e 9032      		cpi r25,lo8(32)
 3416 0280 01F0      		breq .L224
 3417 0282 00C0      		rjmp .L207
 3418               	.LVL298:
 3419               	.L200:
 3420               	.LSM500:
 3421 0284 4132      		cpi r20,lo8(33)
 3422 0286 01F4      		brne .L174
 3423 0288 3930      		cpi r19,lo8(9)
 3424 028a 01F4      		brne .L174
 3425               	.L212:
 3426               	.LBB347:
 3427               	.LBB348:
 3428               	.LSM501:
 3429 028c 8091 E800 		lds r24,232
 3430 0290 82FF      		sbrs r24,2
 3431 0292 00C0      		rjmp .L212
 3432               	.LBE348:
 3433               	.LBE347:
 3434               	.LBB349:
 3435               	.LBB350:
 3436               	.LSM502:
 3437 0294 8BEF      		ldi r24,lo8(-5)
 3438 0296 8093 E800 		sts 232,r24
 3439               	.L206:
 3440               	.LBE350:
 3441               	.LBE349:
 3442               	.LBB351:
 3443               	.LBB352:
 3444               	.LSM503:
 3445 029a 8091 E800 		lds r24,232
 3446 029e 80FF      		sbrs r24,0
 3447 02a0 00C0      		rjmp .L206
 3448               	.LVL299:
 3449               	.L226:
 3450               	.LBE352:
 3451               	.LBE351:
 3452               	.LBB353:
 3453               	.LBB354:
 3454               	.LSM504:
 3455 02a2 8EEF      		ldi r24,lo8(-2)
 3456 02a4 8093 E800 		sts 232,r24
 3457 02a8 00C0      		rjmp .L207
 3458               	.LVL300:
 3459               	.L174:
 3460               	.LBE354:
 3461               	.LBE353:
 3462               	.LSM505:
 3463 02aa 81E2      		ldi r24,lo8(33)
 3464               	.LVL301:
 3465 02ac 8093 EB00 		sts 235,r24
 3466               	.LVL302:
 3467               	.L207:
 3468               	/* epilogue start */
 3469               	.LSM506:
 3470 02b0 FF91      		pop r31
 3471 02b2 EF91      		pop r30
 3472               	.LVL303:
 3473 02b4 BF91      		pop r27
 3474               	.LVL304:
 3475 02b6 AF91      		pop r26
 3476               	.LVL305:
 3477 02b8 9F91      		pop r25
 3478               	.LVL306:
 3479 02ba 8F91      		pop r24
 3480 02bc 7F91      		pop r23
 3481               	.LVL307:
 3482 02be 6F91      		pop r22
 3483               	.LVL308:
 3484 02c0 5F91      		pop r21
 3485 02c2 4F91      		pop r20
 3486               	.LVL309:
 3487 02c4 3F91      		pop r19
 3488               	.LVL310:
 3489 02c6 2F91      		pop r18
 3490               	.LVL311:
 3491 02c8 1F91      		pop r17
 3492 02ca 0F91      		pop r16
 3493 02cc 0F90      		pop r0
 3494 02ce 0BBE      		out 91-32,r0
 3495 02d0 0F90      		pop r0
 3496 02d2 0FBE      		out __SREG__,r0
 3497 02d4 0F90      		pop r0
 3498 02d6 1F90      		pop __zero_reg__
 3499 02d8 1895      		reti
 3500               	.LFE49:
 3502               		.section	.text.slaveinit,"ax",@progbits
 3503               	.global	slaveinit
 3505               	slaveinit:
 3506               	.LFB50:
 3507               	.LSM507:
 3508               	/* prologue: function */
 3509               	/* frame size = 0 */
 3510               	.LSM508:
 3511 0000 569A      		sbi 42-32,6
 3512               	.LSM509:
 3513 0002 5E9A      		sbi 43-32,6
 3514               	.LSM510:
 3515 0004 389A      		sbi 39-32,0
 3516               	.LSM511:
 3517 0006 409A      		sbi 40-32,0
 3518               	.LSM512:
 3519 0008 399A      		sbi 39-32,1
 3520               	.LSM513:
 3521 000a 419A      		sbi 40-32,1
 3522               	.LSM514:
 3523 000c 3A9A      		sbi 39-32,2
 3524               	.LSM515:
 3525 000e 429A      		sbi 40-32,2
 3526               	.LSM516:
 3527 0010 3B9A      		sbi 39-32,3
 3528               	.LSM517:
 3529 0012 439A      		sbi 40-32,3
 3530               	.LSM518:
 3531 0014 3C9A      		sbi 39-32,4
 3532               	.LSM519:
 3533 0016 449A      		sbi 40-32,4
 3534               	.LSM520:
 3535 0018 3D9A      		sbi 39-32,5
 3536               	.LSM521:
 3537 001a 459A      		sbi 40-32,5
 3538               	.LSM522:
 3539 001c 209A      		sbi 36-32,0
 3540               	.LSM523:
 3541 001e 289A      		sbi 37-32,0
 3542               	.LSM524:
 3543 0020 219A      		sbi 36-32,1
 3544               	.LSM525:
 3545 0022 419A      		sbi 40-32,1
 3546               	.LSM526:
 3547 0024 229A      		sbi 36-32,2
 3548               	.LSM527:
 3549 0026 2A9A      		sbi 37-32,2
 3550               	.LSM528:
 3551 0028 239A      		sbi 36-32,3
 3552               	.LSM529:
 3553 002a 2B9A      		sbi 37-32,3
 3554               	.LSM530:
 3555 002c 249A      		sbi 36-32,4
 3556               	.LSM531:
 3557 002e 2C9A      		sbi 37-32,4
 3558               	.LSM532:
 3559 0030 259A      		sbi 36-32,5
 3560               	.LSM533:
 3561 0032 2D9A      		sbi 37-32,5
 3562               	.LSM534:
 3563 0034 8098      		cbi 48-32,0
 3564               	.LSM535:
 3565 0036 889A      		sbi 49-32,0
 3566               	.LSM536:
 3567 0038 859A      		sbi 48-32,5
 3568               	.LSM537:
 3569 003a 869A      		sbi 48-32,6
 3570               	.LSM538:
 3571 003c 879A      		sbi 48-32,7
 3572               	.LSM539:
 3573 003e 4698      		cbi 40-32,6
 3574               	.LSM540:
 3575 0040 469A      		sbi 40-32,6
 3576               	.LSM541:
 3577 0042 4798      		cbi 40-32,7
 3578               	.LSM542:
 3579 0044 479A      		sbi 40-32,7
 3580               	.LSM543:
 3581 0046 2698      		cbi 36-32,6
 3582               	.LSM544:
 3583 0048 2E9A      		sbi 37-32,6
 3584               	.LSM545:
 3585 004a 2798      		cbi 36-32,7
 3586               	.LSM546:
 3587 004c 2F9A      		sbi 37-32,7
 3588               	.LSM547:
 3589 004e 569A      		sbi 42-32,6
 3590               	.LSM548:
 3591 0050 5E9A      		sbi 43-32,6
 3592               	.LSM549:
 3593 0052 579A      		sbi 42-32,7
 3594               	.LSM550:
 3595 0054 5F9A      		sbi 43-32,7
 3596               	/* epilogue start */
 3597               	.LSM551:
 3598 0056 0895      		ret
 3599               	.LFE50:
 3601               		.section	.text.delay_ms,"ax",@progbits
 3602               	.global	delay_ms
 3604               	delay_ms:
 3605               	.LFB51:
 3606               	.LSM552:
 3607               	.LVL312:
 3608               	/* prologue: function */
 3609               	/* frame size = 0 */
 3610               	.LBB355:
 3611               	.LBB356:
 3612               	.LBB357:
 3613               	.LBB358:
 3614               	.LSM553:
 3615 0000 20E0      		ldi r18,lo8(3840)
 3616 0002 3FE0      		ldi r19,hi8(3840)
 3617 0004 00C0      		rjmp .L230
 3618               	.LVL313:
 3619               	.L231:
 3620 0006 F901      		movw r30,r18
 3621               	/* #APP */
 3622               	 ;  105 "/usr/local/CrossPack-AVR-20100115/lib/gcc/avr/4.3.3/../../../../avr/include/util/delay_bas
 3623 0008 3197      		1: sbiw r30,1
 3624 000a 01F4      		brne 1b
 3625               	 ;  0 "" 2
 3626               	/* #NOAPP */
 3627               	.LBE358:
 3628               	.LBE357:
 3629               	.LBE356:
 3630               	.LBE355:
 3631               	.LSM554:
 3632 000c 0197      		sbiw r24,1
 3633               	.L230:
 3634               	.LSM555:
 3635 000e 0097      		sbiw r24,0
 3636 0010 01F4      		brne .L231
 3637               	/* epilogue start */
 3638               	.LSM556:
 3639 0012 0895      		ret
 3640               	.LFE51:
 3642               		.section	.text.timer0,"ax",@progbits
 3643               	.global	timer0
 3645               	timer0:
 3646               	.LFB52:
 3647               	.LSM557:
 3648               	/* prologue: function */
 3649               	/* frame size = 0 */
 3650               	.LSM558:
 3651 0000 85B5      		in r24,69-32
 3652 0002 8460      		ori r24,lo8(4)
 3653 0004 85BD      		out 69-32,r24
 3654               	.LSM559:
 3655 0006 85B5      		in r24,69-32
 3656 0008 8160      		ori r24,lo8(1)
 3657 000a 85BD      		out 69-32,r24
 3658               	.LSM560:
 3659 000c 82E0      		ldi r24,lo8(2)
 3660 000e 87BD      		out 71-32,r24
 3661               	.LSM561:
 3662 0010 EEE6      		ldi r30,lo8(110)
 3663 0012 F0E0      		ldi r31,hi8(110)
 3664 0014 8081      		ld r24,Z
 3665 0016 8160      		ori r24,lo8(1)
 3666 0018 8083      		st Z,r24
 3667               	.LSM562:
 3668 001a 80E4      		ldi r24,lo8(64)
 3669 001c 86BD      		out 70-32,r24
 3670               	/* epilogue start */
 3671               	.LSM563:
 3672 001e 0895      		ret
 3673               	.LFE52:
 3675               		.section	.text.__vector_15,"ax",@progbits
 3676               	.global	__vector_15
 3678               	__vector_15:
 3679               	.LFB53:
 3680               	.LSM564:
 3681 0000 1F92      		push __zero_reg__
 3682 0002 0F92      		push r0
 3683 0004 0FB6      		in r0,__SREG__
 3684 0006 0F92      		push r0
 3685 0008 1124      		clr __zero_reg__
 3686 000a 8F93      		push r24
 3687 000c 9F93      		push r25
 3688               	/* prologue: Signal */
 3689               	/* frame size = 0 */
 3690               	.LSM565:
 3691 000e 8091 0000 		lds r24,timer2Counter
 3692 0012 9091 0000 		lds r25,(timer2Counter)+1
 3693 0016 0196      		adiw r24,1
 3694 0018 9093 0000 		sts (timer2Counter)+1,r25
 3695 001c 8093 0000 		sts timer2Counter,r24
 3696               	.LSM566:
 3697 0020 8091 0000 		lds r24,timer2Counter
 3698 0024 9091 0000 		lds r25,(timer2Counter)+1
 3699 0028 0E97      		sbiw r24,14
 3700 002a 00F0      		brlo .L236
 3701               	.LSM567:
 3702 002c 8091 0000 		lds r24,CounterA
 3703 0030 9091 0000 		lds r25,(CounterA)+1
 3704 0034 0196      		adiw r24,1
 3705 0036 9093 0000 		sts (CounterA)+1,r25
 3706 003a 8093 0000 		sts CounterA,r24
 3707               	.LSM568:
 3708 003e 8091 0000 		lds r24,CounterB
 3709 0042 9091 0000 		lds r25,(CounterB)+1
 3710 0046 0196      		adiw r24,1
 3711 0048 9093 0000 		sts (CounterB)+1,r25
 3712 004c 8093 0000 		sts CounterB,r24
 3713               	.LSM569:
 3714 0050 8091 0000 		lds r24,CounterC
 3715 0054 9091 0000 		lds r25,(CounterC)+1
 3716 0058 0196      		adiw r24,1
 3717 005a 9093 0000 		sts (CounterC)+1,r25
 3718 005e 8093 0000 		sts CounterC,r24
 3719               	.LSM570:
 3720 0062 8091 0000 		lds r24,CounterD
 3721 0066 9091 0000 		lds r25,(CounterD)+1
 3722 006a 0196      		adiw r24,1
 3723 006c 9093 0000 		sts (CounterD)+1,r25
 3724 0070 8093 0000 		sts CounterD,r24
 3725               	.LSM571:
 3726 0074 8091 0000 		lds r24,PWM
 3727 0078 8823      		tst r24
 3728 007a 01F0      		breq .L237
 3729               	.LSM572:
 3730 007c 8091 0000 		lds r24,pwmposition
 3731 0080 8F5F      		subi r24,lo8(-(1))
 3732 0082 8093 0000 		sts pwmposition,r24
 3733 0086 00C0      		rjmp .L238
 3734               	.L237:
 3735               	.LSM573:
 3736 0088 1092 0000 		sts pwmposition,__zero_reg__
 3737               	.L238:
 3738               	.LSM574:
 3739 008c 1092 0000 		sts (timer2Counter)+1,__zero_reg__
 3740 0090 1092 0000 		sts timer2Counter,__zero_reg__
 3741               	.L236:
 3742               	.LSM575:
 3743 0094 8AE0      		ldi r24,lo8(10)
 3744 0096 8093 B200 		sts 178,r24
 3745               	/* epilogue start */
 3746               	.LSM576:
 3747 009a 9F91      		pop r25
 3748 009c 8F91      		pop r24
 3749 009e 0F90      		pop r0
 3750 00a0 0FBE      		out __SREG__,r0
 3751 00a2 0F90      		pop r0
 3752 00a4 1F90      		pop __zero_reg__
 3753 00a6 1895      		reti
 3754               	.LFE53:
 3756               		.section	.text.AbschnittLaden,"ax",@progbits
 3757               	.global	AbschnittLaden
 3759               	AbschnittLaden:
 3760               	.LFB54:
 3761               	.LSM577:
 3762               	.LVL314:
 3763               	/* prologue: function */
 3764               	/* frame size = 0 */
 3765 0000 FC01      		movw r30,r24
 3766               	.LSM578:
 3767 0002 8189      		ldd r24,Z+17
 3768               	.LVL315:
 3769               	.LSM579:
 3770 0004 81FF      		sbrs r24,1
 3771 0006 00C0      		rjmp .L241
 3772               	.LVL316:
 3773 0008 42E0      		ldi r20,lo8(2)
 3774               	.LVL317:
 3775 000a 00C0      		rjmp .L242
 3776               	.LVL318:
 3777               	.L241:
 3778 000c 482F      		mov r20,r24
 3779               	.LVL319:
 3780 000e 4170      		andi r20,lo8(1)
 3781               	.L242:
 3782               	.LSM580:
 3783 0010 1092 0000 		sts richtung,__zero_reg__
 3784               	.LSM581:
 3785 0014 4298      		cbi 40-32,2
 3786               	.LSM582:
 3787 0016 1092 0000 		sts (CounterA)+1,__zero_reg__
 3788 001a 1092 0000 		sts CounterA,__zero_reg__
 3789               	.LSM583:
 3790 001e 2081      		ld r18,Z
 3791               	.LVL320:
 3792               	.LSM584:
 3793 0020 9181      		ldd r25,Z+1
 3794               	.LVL321:
 3795               	.LSM585:
 3796 0022 97FF      		sbrs r25,7
 3797 0024 00C0      		rjmp .L243
 3798               	.LSM586:
 3799 0026 8091 0000 		lds r24,richtung
 3800               	.LVL322:
 3801 002a 8160      		ori r24,lo8(1)
 3802 002c 8093 0000 		sts richtung,r24
 3803               	.LSM587:
 3804 0030 4198      		cbi 40-32,1
 3805 0032 00C0      		rjmp .L244
 3806               	.LVL323:
 3807               	.L243:
 3808               	.LSM588:
 3809 0034 8091 0000 		lds r24,richtung
 3810               	.LVL324:
 3811 0038 8E7F      		andi r24,lo8(-2)
 3812 003a 8093 0000 		sts richtung,r24
 3813               	.LSM589:
 3814 003e 419A      		sbi 40-32,1
 3815               	.L244:
 3816               	.LSM590:
 3817 0040 9F77      		andi r25,lo8(127)
 3818 0042 892F      		mov r24,r25
 3819 0044 90E0      		ldi r25,lo8(0)
 3820               	.LVL325:
 3821 0046 9093 0000 		sts (StepCounterA)+1,r25
 3822 004a 8093 0000 		sts StepCounterA,r24
 3823               	.LSM591:
 3824 004e 8091 0000 		lds r24,StepCounterA
 3825 0052 9091 0000 		lds r25,(StepCounterA)+1
 3826 0056 982F      		mov r25,r24
 3827 0058 8827      		clr r24
 3828 005a 9093 0000 		sts (StepCounterA)+1,r25
 3829 005e 8093 0000 		sts StepCounterA,r24
 3830               	.LSM592:
 3831 0062 8091 0000 		lds r24,StepCounterA
 3832 0066 9091 0000 		lds r25,(StepCounterA)+1
 3833 006a 820F      		add r24,r18
 3834 006c 911D      		adc r25,__zero_reg__
 3835 006e 9093 0000 		sts (StepCounterA)+1,r25
 3836 0072 8093 0000 		sts StepCounterA,r24
 3837               	.LSM593:
 3838 0076 2481      		ldd r18,Z+4
 3839               	.LVL326:
 3840               	.LSM594:
 3841 0078 8581      		ldd r24,Z+5
 3842 007a 90E0      		ldi r25,lo8(0)
 3843 007c 9093 0000 		sts (DelayA)+1,r25
 3844 0080 8093 0000 		sts DelayA,r24
 3845               	.LSM595:
 3846 0084 8091 0000 		lds r24,DelayA
 3847 0088 9091 0000 		lds r25,(DelayA)+1
 3848 008c 982F      		mov r25,r24
 3849 008e 8827      		clr r24
 3850 0090 9093 0000 		sts (DelayA)+1,r25
 3851 0094 8093 0000 		sts DelayA,r24
 3852               	.LSM596:
 3853 0098 8091 0000 		lds r24,DelayA
 3854 009c 9091 0000 		lds r25,(DelayA)+1
 3855 00a0 820F      		add r24,r18
 3856 00a2 911D      		adc r25,__zero_reg__
 3857 00a4 9093 0000 		sts (DelayA)+1,r25
 3858 00a8 8093 0000 		sts DelayA,r24
 3859               	.LSM597:
 3860 00ac 1092 0000 		sts (CounterB)+1,__zero_reg__
 3861 00b0 1092 0000 		sts CounterB,__zero_reg__
 3862               	.LSM598:
 3863 00b4 4598      		cbi 40-32,5
 3864               	.LSM599:
 3865 00b6 2281      		ldd r18,Z+2
 3866               	.LVL327:
 3867               	.LSM600:
 3868 00b8 9381      		ldd r25,Z+3
 3869               	.LVL328:
 3870               	.LSM601:
 3871 00ba 97FF      		sbrs r25,7
 3872 00bc 00C0      		rjmp .L245
 3873               	.LSM602:
 3874 00be 8091 0000 		lds r24,richtung
 3875 00c2 8260      		ori r24,lo8(2)
 3876 00c4 8093 0000 		sts richtung,r24
 3877               	.LSM603:
 3878 00c8 4498      		cbi 40-32,4
 3879 00ca 00C0      		rjmp .L246
 3880               	.L245:
 3881               	.LSM604:
 3882 00cc 8091 0000 		lds r24,richtung
 3883 00d0 8D7F      		andi r24,lo8(-3)
 3884 00d2 8093 0000 		sts richtung,r24
 3885               	.LSM605:
 3886 00d6 449A      		sbi 40-32,4
 3887               	.L246:
 3888               	.LSM606:
 3889 00d8 9F77      		andi r25,lo8(127)
 3890 00da 892F      		mov r24,r25
 3891 00dc 90E0      		ldi r25,lo8(0)
 3892               	.LVL329:
 3893 00de 9093 0000 		sts (StepCounterB)+1,r25
 3894 00e2 8093 0000 		sts StepCounterB,r24
 3895               	.LSM607:
 3896 00e6 8091 0000 		lds r24,StepCounterB
 3897 00ea 9091 0000 		lds r25,(StepCounterB)+1
 3898 00ee 982F      		mov r25,r24
 3899 00f0 8827      		clr r24
 3900 00f2 9093 0000 		sts (StepCounterB)+1,r25
 3901 00f6 8093 0000 		sts StepCounterB,r24
 3902               	.LSM608:
 3903 00fa 8091 0000 		lds r24,StepCounterB
 3904 00fe 9091 0000 		lds r25,(StepCounterB)+1
 3905 0102 820F      		add r24,r18
 3906 0104 911D      		adc r25,__zero_reg__
 3907 0106 9093 0000 		sts (StepCounterB)+1,r25
 3908 010a 8093 0000 		sts StepCounterB,r24
 3909               	.LSM609:
 3910 010e 9781      		ldd r25,Z+7
 3911 0110 80E0      		ldi r24,lo8(0)
 3912 0112 2681      		ldd r18,Z+6
 3913               	.LVL330:
 3914 0114 820F      		add r24,r18
 3915 0116 911D      		adc r25,__zero_reg__
 3916 0118 9093 0000 		sts (DelayB)+1,r25
 3917 011c 8093 0000 		sts DelayB,r24
 3918               	.LSM610:
 3919 0120 2A98      		cbi 37-32,2
 3920               	.LSM611:
 3921 0122 1092 0000 		sts (CounterC)+1,__zero_reg__
 3922 0126 1092 0000 		sts CounterC,__zero_reg__
 3923               	.LSM612:
 3924 012a 2085      		ldd r18,Z+8
 3925               	.LVL331:
 3926               	.LSM613:
 3927 012c 9185      		ldd r25,Z+9
 3928               	.LVL332:
 3929               	.LSM614:
 3930 012e 97FF      		sbrs r25,7
 3931 0130 00C0      		rjmp .L247
 3932               	.LSM615:
 3933 0132 8091 0000 		lds r24,richtung
 3934 0136 8460      		ori r24,lo8(4)
 3935 0138 8093 0000 		sts richtung,r24
 3936               	.LSM616:
 3937 013c 2998      		cbi 37-32,1
 3938 013e 00C0      		rjmp .L248
 3939               	.L247:
 3940               	.LSM617:
 3941 0140 8091 0000 		lds r24,richtung
 3942 0144 8B7F      		andi r24,lo8(-5)
 3943 0146 8093 0000 		sts richtung,r24
 3944               	.LSM618:
 3945 014a 299A      		sbi 37-32,1
 3946               	.L248:
 3947               	.LSM619:
 3948 014c 9F77      		andi r25,lo8(127)
 3949 014e 892F      		mov r24,r25
 3950 0150 90E0      		ldi r25,lo8(0)
 3951               	.LVL333:
 3952 0152 9093 0000 		sts (StepCounterC)+1,r25
 3953 0156 8093 0000 		sts StepCounterC,r24
 3954               	.LSM620:
 3955 015a 8091 0000 		lds r24,StepCounterC
 3956 015e 9091 0000 		lds r25,(StepCounterC)+1
 3957 0162 982F      		mov r25,r24
 3958 0164 8827      		clr r24
 3959 0166 9093 0000 		sts (StepCounterC)+1,r25
 3960 016a 8093 0000 		sts StepCounterC,r24
 3961               	.LSM621:
 3962 016e 8091 0000 		lds r24,StepCounterC
 3963 0172 9091 0000 		lds r25,(StepCounterC)+1
 3964 0176 820F      		add r24,r18
 3965 0178 911D      		adc r25,__zero_reg__
 3966 017a 9093 0000 		sts (StepCounterC)+1,r25
 3967 017e 8093 0000 		sts StepCounterC,r24
 3968               	.LSM622:
 3969 0182 2485      		ldd r18,Z+12
 3970               	.LVL334:
 3971               	.LSM623:
 3972 0184 8585      		ldd r24,Z+13
 3973 0186 90E0      		ldi r25,lo8(0)
 3974 0188 9093 0000 		sts (DelayC)+1,r25
 3975 018c 8093 0000 		sts DelayC,r24
 3976               	.LSM624:
 3977 0190 8091 0000 		lds r24,DelayC
 3978 0194 9091 0000 		lds r25,(DelayC)+1
 3979 0198 982F      		mov r25,r24
 3980 019a 8827      		clr r24
 3981 019c 9093 0000 		sts (DelayC)+1,r25
 3982 01a0 8093 0000 		sts DelayC,r24
 3983               	.LSM625:
 3984 01a4 8091 0000 		lds r24,DelayC
 3985 01a8 9091 0000 		lds r25,(DelayC)+1
 3986 01ac 820F      		add r24,r18
 3987 01ae 911D      		adc r25,__zero_reg__
 3988 01b0 9093 0000 		sts (DelayC)+1,r25
 3989 01b4 8093 0000 		sts DelayC,r24
 3990               	.LSM626:
 3991 01b8 2D98      		cbi 37-32,5
 3992               	.LSM627:
 3993 01ba 1092 0000 		sts (CounterD)+1,__zero_reg__
 3994 01be 1092 0000 		sts CounterD,__zero_reg__
 3995               	.LSM628:
 3996 01c2 2285      		ldd r18,Z+10
 3997               	.LVL335:
 3998               	.LSM629:
 3999 01c4 9385      		ldd r25,Z+11
 4000               	.LVL336:
 4001               	.LSM630:
 4002 01c6 97FF      		sbrs r25,7
 4003 01c8 00C0      		rjmp .L249
 4004               	.LSM631:
 4005 01ca 8091 0000 		lds r24,richtung
 4006 01ce 8860      		ori r24,lo8(8)
 4007 01d0 8093 0000 		sts richtung,r24
 4008               	.LSM632:
 4009 01d4 2C98      		cbi 37-32,4
 4010 01d6 00C0      		rjmp .L250
 4011               	.L249:
 4012               	.LSM633:
 4013 01d8 8091 0000 		lds r24,richtung
 4014 01dc 877F      		andi r24,lo8(-9)
 4015 01de 8093 0000 		sts richtung,r24
 4016               	.LSM634:
 4017 01e2 2C9A      		sbi 37-32,4
 4018               	.L250:
 4019               	.LSM635:
 4020 01e4 9F77      		andi r25,lo8(127)
 4021 01e6 892F      		mov r24,r25
 4022 01e8 90E0      		ldi r25,lo8(0)
 4023               	.LVL337:
 4024 01ea 9093 0000 		sts (StepCounterD)+1,r25
 4025 01ee 8093 0000 		sts StepCounterD,r24
 4026               	.LSM636:
 4027 01f2 8091 0000 		lds r24,StepCounterD
 4028 01f6 9091 0000 		lds r25,(StepCounterD)+1
 4029 01fa 982F      		mov r25,r24
 4030 01fc 8827      		clr r24
 4031 01fe 9093 0000 		sts (StepCounterD)+1,r25
 4032 0202 8093 0000 		sts StepCounterD,r24
 4033               	.LSM637:
 4034 0206 8091 0000 		lds r24,StepCounterD
 4035 020a 9091 0000 		lds r25,(StepCounterD)+1
 4036 020e 820F      		add r24,r18
 4037 0210 911D      		adc r25,__zero_reg__
 4038 0212 9093 0000 		sts (StepCounterD)+1,r25
 4039 0216 8093 0000 		sts StepCounterD,r24
 4040               	.LSM638:
 4041 021a 2685      		ldd r18,Z+14
 4042               	.LVL338:
 4043               	.LSM639:
 4044 021c 8785      		ldd r24,Z+15
 4045 021e 90E0      		ldi r25,lo8(0)
 4046 0220 9093 0000 		sts (DelayD)+1,r25
 4047 0224 8093 0000 		sts DelayD,r24
 4048               	.LSM640:
 4049 0228 8091 0000 		lds r24,DelayD
 4050 022c 9091 0000 		lds r25,(DelayD)+1
 4051 0230 982F      		mov r25,r24
 4052 0232 8827      		clr r24
 4053 0234 9093 0000 		sts (DelayD)+1,r25
 4054 0238 8093 0000 		sts DelayD,r24
 4055               	.LSM641:
 4056 023c 8091 0000 		lds r24,DelayD
 4057 0240 9091 0000 		lds r25,(DelayD)+1
 4058 0244 820F      		add r24,r18
 4059 0246 911D      		adc r25,__zero_reg__
 4060 0248 9093 0000 		sts (DelayD)+1,r25
 4061 024c 8093 0000 		sts DelayD,r24
 4062               	.LSM642:
 4063 0250 1092 0000 		sts motorstatus,__zero_reg__
 4064               	.LSM643:
 4065 0254 2091 0000 		lds r18,StepCounterA
 4066 0258 3091 0000 		lds r19,(StepCounterA)+1
 4067               	.LVL339:
 4068 025c 8091 0000 		lds r24,StepCounterB
 4069 0260 9091 0000 		lds r25,(StepCounterB)+1
 4070 0264 8217      		cp r24,r18
 4071 0266 9307      		cpc r25,r19
 4072 0268 00F4      		brsh .L251
 4073               	.LSM644:
 4074 026a 2091 0000 		lds r18,StepCounterA
 4075 026e 3091 0000 		lds r19,(StepCounterA)+1
 4076 0272 8091 0000 		lds r24,StepCounterC
 4077 0276 9091 0000 		lds r25,(StepCounterC)+1
 4078 027a 8217      		cp r24,r18
 4079 027c 9307      		cpc r25,r19
 4080 027e 00F4      		brsh .L256
 4081               	.LSM645:
 4082 0280 2091 0000 		lds r18,StepCounterA
 4083 0284 3091 0000 		lds r19,(StepCounterA)+1
 4084 0288 8091 0000 		lds r24,StepCounterD
 4085 028c 9091 0000 		lds r25,(StepCounterD)+1
 4086 0290 8217      		cp r24,r18
 4087 0292 9307      		cpc r25,r19
 4088 0294 00F4      		brsh .L258
 4089               	.LSM646:
 4090 0296 8091 0000 		lds r24,motorstatus
 4091 029a 8160      		ori r24,lo8(1)
 4092 029c 00C0      		rjmp .L260
 4093               	.L251:
 4094               	.LSM647:
 4095 029e 2091 0000 		lds r18,StepCounterB
 4096 02a2 3091 0000 		lds r19,(StepCounterB)+1
 4097 02a6 8091 0000 		lds r24,StepCounterC
 4098 02aa 9091 0000 		lds r25,(StepCounterC)+1
 4099 02ae 8217      		cp r24,r18
 4100 02b0 9307      		cpc r25,r19
 4101 02b2 00F4      		brsh .L256
 4102               	.LSM648:
 4103 02b4 2091 0000 		lds r18,StepCounterB
 4104 02b8 3091 0000 		lds r19,(StepCounterB)+1
 4105 02bc 8091 0000 		lds r24,StepCounterD
 4106 02c0 9091 0000 		lds r25,(StepCounterD)+1
 4107 02c4 8217      		cp r24,r18
 4108 02c6 9307      		cpc r25,r19
 4109 02c8 00F4      		brsh .L258
 4110               	.LSM649:
 4111 02ca 8091 0000 		lds r24,motorstatus
 4112 02ce 8260      		ori r24,lo8(2)
 4113 02d0 00C0      		rjmp .L260
 4114               	.L256:
 4115               	.LSM650:
 4116 02d2 2091 0000 		lds r18,StepCounterC
 4117 02d6 3091 0000 		lds r19,(StepCounterC)+1
 4118 02da 8091 0000 		lds r24,StepCounterD
 4119 02de 9091 0000 		lds r25,(StepCounterD)+1
 4120 02e2 8217      		cp r24,r18
 4121 02e4 9307      		cpc r25,r19
 4122 02e6 00F4      		brsh .L258
 4123               	.LSM651:
 4124 02e8 8091 0000 		lds r24,motorstatus
 4125 02ec 8460      		ori r24,lo8(4)
 4126 02ee 00C0      		rjmp .L260
 4127               	.L258:
 4128               	.LSM652:
 4129 02f0 8091 0000 		lds r24,motorstatus
 4130 02f4 8860      		ori r24,lo8(8)
 4131               	.L260:
 4132 02f6 8093 0000 		sts motorstatus,r24
 4133               	.LSM653:
 4134 02fa 842F      		mov r24,r20
 4135               	/* epilogue start */
 4136 02fc 0895      		ret
 4137               	.LFE54:
 4139               		.section	.text.AnschlagVonMotor,"ax",@progbits
 4140               	.global	AnschlagVonMotor
 4142               	AnschlagVonMotor:
 4143               	.LFB55:
 4144               	.LSM654:
 4145               	.LVL340:
 4146 0000 CF93      		push r28
 4147 0002 DF93      		push r29
 4148               	/* prologue: function */
 4149               	/* frame size = 0 */
 4150 0004 E82F      		mov r30,r24
 4151               	.LSM655:
 4152 0006 8091 0000 		lds r24,richtung
 4153               	.LVL341:
 4154 000a CE2F      		mov r28,r30
 4155 000c D0E0      		ldi r29,lo8(0)
 4156 000e 90E0      		ldi r25,lo8(0)
 4157 0010 0E2E      		mov r0,r30
 4158 0012 00C0      		rjmp 2f
 4159 0014 9595      	1:	asr r25
 4160 0016 8795      		ror r24
 4161 0018 0A94      	2:	dec r0
 4162 001a 02F4      		brpl 1b
 4163               	.LVL342:
 4164 001c BE01      		movw r22,r28
 4165 001e 6C5F      		subi r22,lo8(-(4))
 4166 0020 7F4F      		sbci r23,hi8(-(4))
 4167 0022 80FF      		sbrs r24,0
 4168 0024 00C0      		rjmp .L264
 4169               	.LSM656:
 4170 0026 8091 0000 		lds r24,anschlagstatus
 4171 002a 90E0      		ldi r25,lo8(0)
 4172 002c 062E      		mov r0,r22
 4173 002e 00C0      		rjmp 2f
 4174 0030 9595      	1:	asr r25
 4175 0032 8795      		ror r24
 4176 0034 0A94      	2:	dec r0
 4177 0036 02F4      		brpl 1b
 4178 0038 80FD      		sbrc r24,0
 4179 003a 00C0      		rjmp .L271
 4180               	.LSM657:
 4181               	/* #APP */
 4182               	 ;  712 "TWI_Slave.c" 1
 4183 003c F894      		cli
 4184               	 ;  0 "" 2
 4185               	.LSM658:
 4186               	/* #NOAPP */
 4187 003e 8091 0000 		lds r24,anschlagstatus
 4188 0042 41E0      		ldi r20,lo8(1)
 4189 0044 50E0      		ldi r21,hi8(1)
 4190 0046 9A01      		movw r18,r20
 4191 0048 00C0      		rjmp 2f
 4192 004a 220F      	1:	lsl r18
 4193 004c 331F      		rol r19
 4194 004e 6A95      	2:	dec r22
 4195 0050 02F4      		brpl 1b
 4196 0052 822B      		or r24,r18
 4197 0054 8093 0000 		sts anschlagstatus,r24
 4198               	.LSM659:
 4199 0058 8091 0000 		lds r24,cncstatus
 4200 005c 83FF      		sbrs r24,3
 4201 005e 00C0      		rjmp .L266
 4202               	.LSM660:
 4203 0060 EB54      		subi r30,lo8(-(-75))
 4204               	.LVL343:
 4205 0062 E093 0000 		sts sendbuffer,r30
 4206 0066 E55B      		subi r30,lo8(-(75))
 4207               	.LSM661:
 4208 0068 2091 0000 		lds r18,cncstatus
 4209 006c CA01      		movw r24,r20
 4210 006e 0C2E      		mov r0,r28
 4211 0070 00C0      		rjmp 2f
 4212 0072 880F      	1:	lsl r24
 4213 0074 991F      		rol r25
 4214 0076 0A94      	2:	dec r0
 4215 0078 02F4      		brpl 1b
 4216 007a 282B      		or r18,r24
 4217 007c 2093 0000 		sts cncstatus,r18
 4218 0080 BE01      		movw r22,r28
 4219 0082 6E5F      		subi r22,lo8(-(2))
 4220 0084 7F4F      		sbci r23,hi8(-(2))
 4221               	.LSM662:
 4222 0086 E230      		cpi r30,lo8(2)
 4223 0088 00F4      		brsh .L267
 4224               	.LSM663:
 4225 008a 88B1      		in r24,40-32
 4226 008c 00C0      		rjmp 2f
 4227 008e 440F      	1:	lsl r20
 4228 0090 551F      		rol r21
 4229 0092 6A95      	2:	dec r22
 4230 0094 02F4      		brpl 1b
 4231 0096 842B      		or r24,r20
 4232 0098 88B9      		out 40-32,r24
 4233               	.LSM664:
 4234 009a 1092 0000 		sts (StepCounterA)+1,__zero_reg__
 4235 009e 1092 0000 		sts StepCounterA,__zero_reg__
 4236               	.LSM665:
 4237 00a2 1092 0000 		sts (StepCounterB)+1,__zero_reg__
 4238 00a6 1092 0000 		sts StepCounterB,__zero_reg__
 4239               	.LSM666:
 4240 00aa 1092 0000 		sts (CounterA)+1,__zero_reg__
 4241 00ae 1092 0000 		sts CounterA,__zero_reg__
 4242               	.LSM667:
 4243 00b2 1092 0000 		sts (CounterB)+1,__zero_reg__
 4244 00b6 1092 0000 		sts CounterB,__zero_reg__
 4245 00ba 00C0      		rjmp .L268
 4246               	.L267:
 4247               	.LSM668:
 4248 00bc 85B1      		in r24,37-32
 4249 00be 00C0      		rjmp 2f
 4250 00c0 440F      	1:	lsl r20
 4251 00c2 551F      		rol r21
 4252 00c4 6A95      	2:	dec r22
 4253 00c6 02F4      		brpl 1b
 4254 00c8 842B      		or r24,r20
 4255 00ca 85B9      		out 37-32,r24
 4256               	.LSM669:
 4257 00cc 1092 0000 		sts (StepCounterC)+1,__zero_reg__
 4258 00d0 1092 0000 		sts StepCounterC,__zero_reg__
 4259               	.LSM670:
 4260 00d4 1092 0000 		sts (StepCounterD)+1,__zero_reg__
 4261 00d8 1092 0000 		sts StepCounterD,__zero_reg__
 4262               	.LSM671:
 4263 00dc 1092 0000 		sts (CounterC)+1,__zero_reg__
 4264 00e0 1092 0000 		sts CounterC,__zero_reg__
 4265               	.LSM672:
 4266 00e4 1092 0000 		sts (CounterD)+1,__zero_reg__
 4267 00e8 1092 0000 		sts CounterD,__zero_reg__
 4268 00ec 00C0      		rjmp .L268
 4269               	.LVL344:
 4270               	.L266:
 4271               	.LSM673:
 4272 00ee 1092 0000 		sts cncstatus,__zero_reg__
 4273               	.LSM674:
 4274 00f2 EB55      		subi r30,lo8(-(-91))
 4275               	.LVL345:
 4276 00f4 E093 0000 		sts sendbuffer,r30
 4277 00f8 E55A      		subi r30,lo8(-(91))
 4278 00fa BE01      		movw r22,r28
 4279 00fc 6E5F      		subi r22,lo8(-(2))
 4280 00fe 7F4F      		sbci r23,hi8(-(2))
 4281               	.LSM675:
 4282 0100 E230      		cpi r30,lo8(2)
 4283 0102 00F4      		brsh .L269
 4284               	.LSM676:
 4285 0104 88B1      		in r24,40-32
 4286 0106 00C0      		rjmp 2f
 4287 0108 440F      	1:	lsl r20
 4288 010a 551F      		rol r21
 4289 010c 6A95      	2:	dec r22
 4290 010e 02F4      		brpl 1b
 4291 0110 842B      		or r24,r20
 4292 0112 88B9      		out 40-32,r24
 4293               	.LSM677:
 4294 0114 85B1      		in r24,37-32
 4295 0116 282B      		or r18,r24
 4296 0118 25B9      		out 37-32,r18
 4297 011a 00C0      		rjmp .L270
 4298               	.L269:
 4299               	.LSM678:
 4300 011c 85B1      		in r24,37-32
 4301 011e 9A01      		movw r18,r20
 4302 0120 00C0      		rjmp 2f
 4303 0122 220F      	1:	lsl r18
 4304 0124 331F      		rol r19
 4305 0126 6A95      	2:	dec r22
 4306 0128 02F4      		brpl 1b
 4307 012a 822B      		or r24,r18
 4308 012c 85B9      		out 37-32,r24
 4309               	.LSM679:
 4310 012e 88B1      		in r24,40-32
 4311 0130 0C2E      		mov r0,r28
 4312 0132 00C0      		rjmp 2f
 4313 0134 440F      	1:	lsl r20
 4314 0136 551F      		rol r21
 4315 0138 0A94      	2:	dec r0
 4316 013a 02F4      		brpl 1b
 4317 013c 842B      		or r24,r20
 4318 013e 88B9      		out 40-32,r24
 4319               	.L270:
 4320               	.LSM680:
 4321 0140 1092 0000 		sts (StepCounterA)+1,__zero_reg__
 4322 0144 1092 0000 		sts StepCounterA,__zero_reg__
 4323               	.LSM681:
 4324 0148 1092 0000 		sts (StepCounterB)+1,__zero_reg__
 4325 014c 1092 0000 		sts StepCounterB,__zero_reg__
 4326               	.LSM682:
 4327 0150 1092 0000 		sts (StepCounterC)+1,__zero_reg__
 4328 0154 1092 0000 		sts StepCounterC,__zero_reg__
 4329               	.LSM683:
 4330 0158 1092 0000 		sts (StepCounterD)+1,__zero_reg__
 4331 015c 1092 0000 		sts StepCounterD,__zero_reg__
 4332               	.LSM684:
 4333 0160 1092 0000 		sts (CounterA)+1,__zero_reg__
 4334 0164 1092 0000 		sts CounterA,__zero_reg__
 4335               	.LSM685:
 4336 0168 1092 0000 		sts (CounterB)+1,__zero_reg__
 4337 016c 1092 0000 		sts CounterB,__zero_reg__
 4338               	.LSM686:
 4339 0170 1092 0000 		sts (CounterC)+1,__zero_reg__
 4340 0174 1092 0000 		sts CounterC,__zero_reg__
 4341               	.LSM687:
 4342 0178 1092 0000 		sts (CounterD)+1,__zero_reg__
 4343 017c 1092 0000 		sts CounterD,__zero_reg__
 4344               	.LSM688:
 4345 0180 1092 0000 		sts ladeposition,__zero_reg__
 4346               	.LSM689:
 4347 0184 1092 0000 		sts motorstatus,__zero_reg__
 4348               	.L268:
 4349               	.LSM690:
 4350 0188 8091 0000 		lds r24,abschnittnummer
 4351 018c 9091 0000 		lds r25,(abschnittnummer)+1
 4352 0190 8093 0000 		sts sendbuffer+5,r24
 4353               	.LSM691:
 4354 0194 8091 0000 		lds r24,ladeposition
 4355 0198 8093 0000 		sts sendbuffer+6,r24
 4356               	.LSM692:
 4357 019c 8091 0000 		lds r24,cncstatus
 4358 01a0 8093 0000 		sts sendbuffer+7,r24
 4359               	.LSM693:
 4360 01a4 80E0      		ldi r24,lo8(sendbuffer)
 4361 01a6 90E0      		ldi r25,hi8(sendbuffer)
 4362 01a8 62E3      		ldi r22,lo8(50)
 4363 01aa 0E94 0000 		call usb_rawhid_send
 4364               	.LVL346:
 4365               	.LSM694:
 4366 01ae 1092 0000 		sts sendbuffer,__zero_reg__
 4367               	.LSM695:
 4368 01b2 1092 0000 		sts sendbuffer+5,__zero_reg__
 4369               	.LSM696:
 4370 01b6 1092 0000 		sts sendbuffer+6,__zero_reg__
 4371               	.LSM697:
 4372 01ba 1092 0000 		sts sendbuffer+7,__zero_reg__
 4373               	.LSM698:
 4374 01be 2091 0000 		lds r18,richtung
 4375 01c2 81E0      		ldi r24,lo8(1)
 4376 01c4 90E0      		ldi r25,hi8(1)
 4377 01c6 00C0      		rjmp 2f
 4378 01c8 880F      	1:	lsl r24
 4379 01ca 991F      		rol r25
 4380 01cc CA95      	2:	dec r28
 4381 01ce 02F4      		brpl 1b
 4382 01d0 8095      		com r24
 4383 01d2 8223      		and r24,r18
 4384 01d4 8093 0000 		sts richtung,r24
 4385               	.LSM699:
 4386               	/* #APP */
 4387               	 ;  810 "TWI_Slave.c" 1
 4388 01d8 7894      		sei
 4389               	 ;  0 "" 2
 4390               	/* #NOAPP */
 4391 01da 00C0      		rjmp .L271
 4392               	.L264:
 4393               	.LSM700:
 4394 01dc 8091 0000 		lds r24,anschlagstatus
 4395 01e0 90E0      		ldi r25,lo8(0)
 4396 01e2 062E      		mov r0,r22
 4397 01e4 00C0      		rjmp 2f
 4398 01e6 9595      	1:	asr r25
 4399 01e8 8795      		ror r24
 4400 01ea 0A94      	2:	dec r0
 4401 01ec 02F4      		brpl 1b
 4402 01ee 80FD      		sbrc r24,0
 4403 01f0 00C0      		rjmp .L271
 4404               	.LSM701:
 4405 01f2 2091 0000 		lds r18,anschlagstatus
 4406 01f6 81E0      		ldi r24,lo8(1)
 4407 01f8 90E0      		ldi r25,hi8(1)
 4408 01fa 00C0      		rjmp 2f
 4409 01fc 880F      	1:	lsl r24
 4410 01fe 991F      		rol r25
 4411 0200 6A95      	2:	dec r22
 4412 0202 02F4      		brpl 1b
 4413 0204 8095      		com r24
 4414 0206 8223      		and r24,r18
 4415 0208 8093 0000 		sts anschlagstatus,r24
 4416               	.L271:
 4417               	/* epilogue start */
 4418               	.LSM702:
 4419 020c DF91      		pop r29
 4420 020e CF91      		pop r28
 4421 0210 0895      		ret
 4422               	.LFE55:
 4424               		.section	.text.StepEndVonMotor,"ax",@progbits
 4425               	.global	StepEndVonMotor
 4427               	StepEndVonMotor:
 4428               	.LFB56:
 4429               	.LSM703:
 4430               	.LVL347:
 4431 0000 1F93      		push r17
 4432               	/* prologue: function */
 4433               	/* frame size = 0 */
 4434 0002 182F      		mov r17,r24
 4435               	.LSM704:
 4436 0004 28B1      		in r18,40-32
 4437 0006 682F      		mov r22,r24
 4438 0008 70E0      		ldi r23,lo8(0)
 4439 000a 6E5F      		subi r22,lo8(-(2))
 4440 000c 7F4F      		sbci r23,hi8(-(2))
 4441 000e 41E0      		ldi r20,lo8(1)
 4442 0010 50E0      		ldi r21,hi8(1)
 4443 0012 CA01      		movw r24,r20
 4444               	.LVL348:
 4445 0014 062E      		mov r0,r22
 4446 0016 00C0      		rjmp 2f
 4447 0018 880F      	1:	lsl r24
 4448 001a 991F      		rol r25
 4449 001c 0A94      	2:	dec r0
 4450 001e 02F4      		brpl 1b
 4451 0020 6250      		subi r22,lo8(-(-2))
 4452 0022 7040      		sbci r23,hi8(-(-2))
 4453 0024 982F      		mov r25,r24
 4454 0026 282B      		or r18,r24
 4455 0028 28B9      		out 40-32,r18
 4456               	.LSM705:
 4457 002a 8091 0000 		lds r24,cncstatus
 4458               	.LSM706:
 4459 002e 1230      		cpi r17,lo8(2)
 4460 0030 00F4      		brsh .L273
 4461               	.LSM707:
 4462 0032 88B1      		in r24,40-32
 4463 0034 892B      		or r24,r25
 4464 0036 88B9      		out 40-32,r24
 4465               	.LSM708:
 4466 0038 1092 0000 		sts (StepCounterA)+1,__zero_reg__
 4467 003c 1092 0000 		sts StepCounterA,__zero_reg__
 4468               	.LSM709:
 4469 0040 1092 0000 		sts (StepCounterB)+1,__zero_reg__
 4470 0044 1092 0000 		sts StepCounterB,__zero_reg__
 4471 0048 00C0      		rjmp .L274
 4472               	.L273:
 4473               	.LSM710:
 4474 004a 85B1      		in r24,37-32
 4475 004c 062E      		mov r0,r22
 4476 004e 00C0      		rjmp 2f
 4477 0050 440F      	1:	lsl r20
 4478 0052 551F      		rol r21
 4479 0054 0A94      	2:	dec r0
 4480 0056 02F4      		brpl 1b
 4481 0058 842B      		or r24,r20
 4482 005a 85B9      		out 37-32,r24
 4483               	.LSM711:
 4484 005c 1092 0000 		sts (StepCounterC)+1,__zero_reg__
 4485 0060 1092 0000 		sts StepCounterC,__zero_reg__
 4486               	.LSM712:
 4487 0064 1092 0000 		sts (StepCounterD)+1,__zero_reg__
 4488 0068 1092 0000 		sts StepCounterD,__zero_reg__
 4489               	.L274:
 4490               	.LSM713:
 4491 006c 88B1      		in r24,40-32
 4492 006e 982B      		or r25,r24
 4493 0070 98B9      		out 40-32,r25
 4494               	.LSM714:
 4495 0072 1092 0000 		sts (StepCounterA)+1,__zero_reg__
 4496 0076 1092 0000 		sts StepCounterA,__zero_reg__
 4497               	.LSM715:
 4498 007a 1092 0000 		sts (StepCounterB)+1,__zero_reg__
 4499 007e 1092 0000 		sts StepCounterB,__zero_reg__
 4500               	.LSM716:
 4501 0082 1092 0000 		sts (CounterA)+1,__zero_reg__
 4502 0086 1092 0000 		sts CounterA,__zero_reg__
 4503               	.LSM717:
 4504 008a 1092 0000 		sts (CounterB)+1,__zero_reg__
 4505 008e 1092 0000 		sts CounterB,__zero_reg__
 4506               	.LSM718:
 4507 0092 25B1      		in r18,37-32
 4508 0094 41E0      		ldi r20,lo8(1)
 4509 0096 50E0      		ldi r21,hi8(1)
 4510 0098 CA01      		movw r24,r20
 4511 009a 062E      		mov r0,r22
 4512 009c 00C0      		rjmp 2f
 4513 009e 880F      	1:	lsl r24
 4514 00a0 991F      		rol r25
 4515 00a2 0A94      	2:	dec r0
 4516 00a4 02F4      		brpl 1b
 4517 00a6 282B      		or r18,r24
 4518 00a8 25B9      		out 37-32,r18
 4519               	.LSM719:
 4520 00aa 1092 0000 		sts (StepCounterC)+1,__zero_reg__
 4521 00ae 1092 0000 		sts StepCounterC,__zero_reg__
 4522               	.LSM720:
 4523 00b2 1092 0000 		sts (StepCounterD)+1,__zero_reg__
 4524 00b6 1092 0000 		sts StepCounterD,__zero_reg__
 4525               	.LSM721:
 4526 00ba 1092 0000 		sts (CounterC)+1,__zero_reg__
 4527 00be 1092 0000 		sts CounterC,__zero_reg__
 4528               	.LSM722:
 4529 00c2 1092 0000 		sts (CounterD)+1,__zero_reg__
 4530 00c6 1092 0000 		sts CounterD,__zero_reg__
 4531               	.LSM723:
 4532 00ca 2091 0000 		lds r18,abschnittnummer
 4533 00ce 3091 0000 		lds r19,(abschnittnummer)+1
 4534 00d2 8091 0000 		lds r24,endposition
 4535 00d6 9091 0000 		lds r25,(endposition)+1
 4536 00da 2817      		cp r18,r24
 4537 00dc 3907      		cpc r19,r25
 4538 00de 01F4      		brne .L275
 4539               	.LSM724:
 4540 00e0 1092 0000 		sts ringbufferstatus,__zero_reg__
 4541               	.LSM725:
 4542 00e4 9091 0000 		lds r25,anschlagstatus
 4543 00e8 6C5F      		subi r22,lo8(-(4))
 4544 00ea 7F4F      		sbci r23,hi8(-(4))
 4545 00ec 00C0      		rjmp 2f
 4546 00ee 440F      	1:	lsl r20
 4547 00f0 551F      		rol r21
 4548 00f2 6A95      	2:	dec r22
 4549 00f4 02F4      		brpl 1b
 4550 00f6 842F      		mov r24,r20
 4551 00f8 8095      		com r24
 4552 00fa 8923      		and r24,r25
 4553 00fc 8093 0000 		sts anschlagstatus,r24
 4554               	.LSM726:
 4555 0100 1092 0000 		sts motorstatus,__zero_reg__
 4556               	.LSM727:
 4557 0104 1655      		subi r17,lo8(-(-86))
 4558 0106 1093 0000 		sts sendbuffer,r17
 4559               	.LSM728:
 4560 010a 8091 0000 		lds r24,abschnittnummer
 4561 010e 9091 0000 		lds r25,(abschnittnummer)+1
 4562 0112 8093 0000 		sts sendbuffer+1,r24
 4563               	.LSM729:
 4564 0116 8091 0000 		lds r24,abschnittnummer
 4565 011a 9091 0000 		lds r25,(abschnittnummer)+1
 4566 011e 8093 0000 		sts sendbuffer+5,r24
 4567               	.LSM730:
 4568 0122 8091 0000 		lds r24,ladeposition
 4569 0126 8093 0000 		sts sendbuffer+6,r24
 4570               	.LSM731:
 4571 012a 8091 0000 		lds r24,cncstatus
 4572 012e 8093 0000 		sts sendbuffer+7,r24
 4573               	.LSM732:
 4574 0132 80E0      		ldi r24,lo8(sendbuffer)
 4575 0134 90E0      		ldi r25,hi8(sendbuffer)
 4576 0136 62E3      		ldi r22,lo8(50)
 4577 0138 0E94 0000 		call usb_rawhid_send
 4578               	.LSM733:
 4579 013c 1092 0000 		sts sendbuffer,__zero_reg__
 4580               	.LSM734:
 4581 0140 1092 0000 		sts sendbuffer+1,__zero_reg__
 4582               	.LSM735:
 4583 0144 1092 0000 		sts sendbuffer+5,__zero_reg__
 4584               	.LSM736:
 4585 0148 1092 0000 		sts sendbuffer+6,__zero_reg__
 4586               	.LSM737:
 4587 014c 1092 0000 		sts sendbuffer+7,__zero_reg__
 4588               	.LSM738:
 4589 0150 1092 0000 		sts ladeposition,__zero_reg__
 4590 0154 00C0      		rjmp .L279
 4591               	.L275:
 4592               	.LBB359:
 4593               	.LBB360:
 4594               	.LSM739:
 4595 0156 8091 0000 		lds r24,ladeposition
 4596               	.LVL349:
 4597               	.LSM740:
 4598 015a 8370      		andi r24,lo8(3)
 4599 015c 21E2      		ldi r18,lo8(33)
 4600 015e 829F      		mul r24,r18
 4601 0160 C001      		movw r24,r0
 4602 0162 1124      		clr r1
 4603               	.LVL350:
 4604 0164 8050      		subi r24,lo8(-(CNCDaten))
 4605 0166 9040      		sbci r25,hi8(-(CNCDaten))
 4606 0168 0E94 0000 		call AbschnittLaden
 4607               	.LSM741:
 4608 016c 8230      		cpi r24,lo8(2)
 4609 016e 01F4      		brne .L277
 4610               	.LSM742:
 4611 0170 8091 0000 		lds r24,abschnittnummer
 4612 0174 9091 0000 		lds r25,(abschnittnummer)+1
 4613 0178 9093 0000 		sts (endposition)+1,r25
 4614 017c 8093 0000 		sts endposition,r24
 4615 0180 00C0      		rjmp .L278
 4616               	.L277:
 4617               	.LSM743:
 4618 0182 8091 0000 		lds r24,abschnittnummer
 4619 0186 9091 0000 		lds r25,(abschnittnummer)+1
 4620 018a 8093 0000 		sts sendbuffer+5,r24
 4621               	.LSM744:
 4622 018e 8091 0000 		lds r24,ladeposition
 4623 0192 8093 0000 		sts sendbuffer+6,r24
 4624               	.LSM745:
 4625 0196 1056      		subi r17,lo8(-(-96))
 4626 0198 1093 0000 		sts sendbuffer,r17
 4627               	.LSM746:
 4628 019c 80E0      		ldi r24,lo8(sendbuffer)
 4629 019e 90E0      		ldi r25,hi8(sendbuffer)
 4630 01a0 62E3      		ldi r22,lo8(50)
 4631 01a2 0E94 0000 		call usb_rawhid_send
 4632               	.LSM747:
 4633 01a6 1092 0000 		sts sendbuffer,__zero_reg__
 4634               	.LSM748:
 4635 01aa 1092 0000 		sts sendbuffer+5,__zero_reg__
 4636               	.LSM749:
 4637 01ae 1092 0000 		sts sendbuffer+6,__zero_reg__
 4638               	.L278:
 4639               	.LSM750:
 4640 01b2 8091 0000 		lds r24,ladeposition
 4641 01b6 8F5F      		subi r24,lo8(-(1))
 4642 01b8 8093 0000 		sts ladeposition,r24
 4643               	.LBE360:
 4644               	.LSM751:
 4645 01bc 8091 0000 		lds r24,AbschnittCounter
 4646 01c0 9091 0000 		lds r25,(AbschnittCounter)+1
 4647 01c4 0196      		adiw r24,1
 4648 01c6 9093 0000 		sts (AbschnittCounter)+1,r25
 4649 01ca 8093 0000 		sts AbschnittCounter,r24
 4650               	.L279:
 4651               	/* epilogue start */
 4652               	.LBE359:
 4653               	.LSM752:
 4654 01ce 1F91      		pop r17
 4655               	.LVL351:
 4656 01d0 0895      		ret
 4657               	.LFE56:
 4659               		.data
 4660               	.LC1:
 4661 0004 4775 7465 		.string	"Guten Tag"
 4661      6E20 5461 
 4661      6700 
 4662 000e 00        		.string	""
 4663               	.LC2:
 4664 000f 563A 2000 		.string	"V: "
 4665 0013 00        		.string	""
 4666               	.LC3:
 4667 0014 5553 422E 		.string	"USB.405"
 4667      3430 3500 
 4668               		.section	.text.main,"ax",@progbits
 4669               	.global	main
 4671               	main:
 4672               	.LFB57:
 4673               	.LSM753:
 4674 0000 6F92      		push r6
 4675 0002 7F92      		push r7
 4676 0004 8F92      		push r8
 4677 0006 9F92      		push r9
 4678 0008 AF92      		push r10
 4679 000a BF92      		push r11
 4680 000c CF92      		push r12
 4681 000e DF92      		push r13
 4682 0010 EF92      		push r14
 4683 0012 FF92      		push r15
 4684 0014 0F93      		push r16
 4685 0016 1F93      		push r17
 4686 0018 CF93      		push r28
 4687 001a DF93      		push r29
 4688               	/* prologue: function */
 4689               	/* frame size = 0 */
 4690               	.LSM754:
 4691 001c 80E8      		ldi r24,lo8(-128)
 4692 001e 8093 6100 		sts 97,r24
 4693 0022 1092 6100 		sts 97,__zero_reg__
 4694               	.LSM755:
 4695 0026 0E94 0000 		call usb_init
 4696               	.L281:
 4697               	.LBB361:
 4698               	.LBB362:
 4699               	.LSM756:
 4700 002a 8091 0000 		lds r24,usb_configuration
 4701               	.LBE362:
 4702               	.LBE361:
 4703               	.LSM757:
 4704 002e 8823      		tst r24
 4705 0030 01F0      		breq .L281
 4706 0032 80E1      		ldi r24,lo8(10000)
 4707 0034 97E2      		ldi r25,hi8(10000)
 4708               	.LVL352:
 4709               	.LBB363:
 4710               	.LBB364:
 4711               	.LBB365:
 4712               	.LBB366:
 4713               	.LSM758:
 4714 0036 20E9      		ldi r18,lo8(400)
 4715 0038 31E0      		ldi r19,hi8(400)
 4716               	.L282:
 4717 003a F901      		movw r30,r18
 4718               	.LVL353:
 4719               	/* #APP */
 4720               	 ;  105 "/usr/local/CrossPack-AVR-20100115/lib/gcc/avr/4.3.3/../../../../avr/include/util/delay_bas
 4721 003c 3197      		1: sbiw r30,1
 4722 003e 01F4      		brne 1b
 4723               	 ;  0 "" 2
 4724               	/* #NOAPP */
 4725               	.LBE366:
 4726               	.LBE365:
 4727               	.LSM759:
 4728 0040 0197      		sbiw r24,1
 4729               	.LSM760:
 4730 0042 01F4      		brne .L282
 4731               	.LBE364:
 4732               	.LBE363:
 4733               	.LSM761:
 4734               	/* #APP */
 4735               	 ;  949 "TWI_Slave.c" 1
 4736 0044 7894      		sei
 4737               	 ;  0 "" 2
 4738               	.LSM762:
 4739               	/* #NOAPP */
 4740 0046 0E94 0000 		call slaveinit
 4741               	.LVL354:
 4742               	.LSM763:
 4743 004a 88E3      		ldi r24,lo8(56)
 4744 004c 66E0      		ldi r22,lo8(6)
 4745 004e 4CE0      		ldi r20,lo8(12)
 4746 0050 0E94 0000 		call lcd_initialize
 4747               	.LSM764:
 4748 0054 80E0      		ldi r24,lo8(.LC1)
 4749 0056 90E0      		ldi r25,hi8(.LC1)
 4750 0058 0E94 0000 		call lcd_puts
 4751 005c 84E6      		ldi r24,lo8(100)
 4752 005e 90E0      		ldi r25,hi8(100)
 4753               	.LVL355:
 4754               	.LBB367:
 4755               	.LBB368:
 4756               	.LBB369:
 4757               	.LBB370:
 4758               	.LBB371:
 4759               	.LBB372:
 4760               	.LSM765:
 4761 0060 20E0      		ldi r18,lo8(3840)
 4762 0062 3FE0      		ldi r19,hi8(3840)
 4763               	.L283:
 4764 0064 F901      		movw r30,r18
 4765               	.LVL356:
 4766               	/* #APP */
 4767               	 ;  105 "/usr/local/CrossPack-AVR-20100115/lib/gcc/avr/4.3.3/../../../../avr/include/util/delay_bas
 4768 0066 3197      		1: sbiw r30,1
 4769 0068 01F4      		brne 1b
 4770               	 ;  0 "" 2
 4771               	/* #NOAPP */
 4772               	.LBE372:
 4773               	.LBE371:
 4774               	.LBE370:
 4775               	.LBE369:
 4776               	.LSM766:
 4777 006a 0197      		sbiw r24,1
 4778               	.LSM767:
 4779 006c 01F4      		brne .L283
 4780               	.LBE368:
 4781               	.LBE367:
 4782               	.LSM768:
 4783 006e 0E94 0000 		call lcd_cls
 4784               	.LVL357:
 4785               	.LSM769:
 4786 0072 80E0      		ldi r24,lo8(.LC2)
 4787 0074 90E0      		ldi r25,hi8(.LC2)
 4788 0076 0E94 0000 		call lcd_puts
 4789               	.LSM770:
 4790 007a 80E0      		ldi r24,lo8(.LC3)
 4791 007c 90E0      		ldi r25,hi8(.LC3)
 4792 007e 0E94 0000 		call lcd_puts
 4793               	.LSM771:
 4794 0082 81E0      		ldi r24,lo8(1)
 4795 0084 0E94 0000 		call lcd_clr_line
 4796               	.LSM772:
 4797 0088 1092 B200 		sts 178,__zero_reg__
 4798               	.LSM773:
 4799 008c 8091 B100 		lds r24,177
 4800 0090 8160      		ori r24,lo8(1)
 4801 0092 8093 B100 		sts 177,r24
 4802               	.LSM774:
 4803 0096 8091 7000 		lds r24,112
 4804 009a 8160      		ori r24,lo8(1)
 4805 009c 8093 7000 		sts 112,r24
 4806               	.LSM775:
 4807 00a0 1092 B000 		sts 176,__zero_reg__
 4808               	.LSM776:
 4809               	/* #APP */
 4810               	 ;  993 "TWI_Slave.c" 1
 4811 00a4 7894      		sei
 4812               	 ;  0 "" 2
 4813               	/* #NOAPP */
 4814 00a6 EE24      		clr r14
 4815 00a8 FF24      		clr r15
 4816               	.LVL358:
 4817               	.LSM777:
 4818 00aa 10E4      		ldi r17,lo8(64)
 4819 00ac B12E      		mov r11,r17
 4820               	.LBB373:
 4821               	.LSM778:
 4822 00ae B3E3      		ldi r27,lo8(51)
 4823 00b0 AB2E      		mov r10,r27
 4824               	.LSM779:
 4825 00b2 A1EE      		ldi r26,lo8(-31)
 4826 00b4 9A2E      		mov r9,r26
 4827               	.LBB374:
 4828               	.LSM780:
 4829 00b6 FFEA      		ldi r31,lo8(-81)
 4830 00b8 8F2E      		mov r8,r31
 4831               	.LBB375:
 4832               	.LSM781:
 4833 00ba CC24      		clr r12
 4834 00bc CA94      		dec r12
 4835 00be DC2C      		mov r13,r12
 4836               	.LSM782:
 4837 00c0 E4E4      		ldi r30,lo8(68)
 4838 00c2 7E2E      		mov r7,r30
 4839               	.LSM783:
 4840 00c4 75E4      		ldi r23,lo8(69)
 4841 00c6 672E      		mov r6,r23
 4842               	.LBE375:
 4843               	.LBE374:
 4844               	.LSM784:
 4845 00c8 03EE      		ldi r16,lo8(-29)
 4846               	.LVL359:
 4847               	.L324:
 4848               	.LBE373:
 4849               	.LSM785:
 4850 00ca 0894      		sec
 4851 00cc E11C      		adc r14,__zero_reg__
 4852 00ce F11C      		adc r15,__zero_reg__
 4853               	.LSM786:
 4854 00d0 8FEF      		ldi r24,lo8(-20481)
 4855 00d2 E816      		cp r14,r24
 4856 00d4 8FEA      		ldi r24,hi8(-20481)
 4857 00d6 F806      		cpc r15,r24
 4858 00d8 01F4      		brne .L284
 4859               	.LSM787:
 4860 00da 8BB1      		in r24,43-32
 4861 00dc 8B25      		eor r24,r11
 4862 00de 8BB9      		out 43-32,r24
 4863 00e0 EE24      		clr r14
 4864 00e2 FF24      		clr r15
 4865               	.L284:
 4866               	.LSM788:
 4867 00e4 8091 0000 		lds r24,PWM
 4868 00e8 8823      		tst r24
 4869 00ea 01F0      		breq .L285
 4870               	.LSM789:
 4871 00ec 9091 0000 		lds r25,pwmposition
 4872 00f0 8091 0000 		lds r24,PWM
 4873 00f4 8917      		cp r24,r25
 4874 00f6 00F4      		brsh .L286
 4875               	.LSM790:
 4876 00f8 5F9A      		sbi 43-32,7
 4877               	.LSM791:
 4878 00fa 1098      		cbi 34-32,0
 4879 00fc 00C0      		rjmp .L285
 4880               	.L286:
 4881               	.LSM792:
 4882 00fe 5F98      		cbi 43-32,7
 4883               	.LSM793:
 4884 0100 109A      		sbi 34-32,0
 4885               	.L285:
 4886               	.LSM794:
 4887 0102 80E0      		ldi r24,lo8(buffer)
 4888 0104 90E0      		ldi r25,hi8(buffer)
 4889 0106 60E0      		ldi r22,lo8(0)
 4890 0108 0E94 0000 		call usb_rawhid_recv
 4891               	.LSM795:
 4892 010c 1816      		cp __zero_reg__,r24
 4893 010e 04F0      		brlt .+2
 4894 0110 00C0      		rjmp .L287
 4895               	.LBB379:
 4896               	.LSM796:
 4897               	/* #APP */
 4898               	 ;  1030 "TWI_Slave.c" 1
 4899 0112 F894      		cli
 4900               	 ;  0 "" 2
 4901               	.LSM797:
 4902               	/* #NOAPP */
 4903 0114 1091 0000 		lds r17,buffer+16
 4904               	.LSM798:
 4905 0118 1093 0000 		sts sendbuffer+5,r17
 4906               	.LSM799:
 4907 011c 1093 0000 		sts sendbuffer+6,r17
 4908               	.LSM800:
 4909 0120 A092 0000 		sts sendbuffer,r10
 4910               	.LSM801:
 4911 0124 80E0      		ldi r24,lo8(sendbuffer)
 4912 0126 90E0      		ldi r25,hi8(sendbuffer)
 4913 0128 62E3      		ldi r22,lo8(50)
 4914 012a 0E94 0000 		call usb_rawhid_send
 4915               	.LSM802:
 4916 012e 1092 0000 		sts sendbuffer,__zero_reg__
 4917               	.LSM803:
 4918 0132 1092 0000 		sts sendbuffer+5,__zero_reg__
 4919               	.LSM804:
 4920 0136 1092 0000 		sts sendbuffer+6,__zero_reg__
 4921               	.LSM805:
 4922 013a 103E      		cpi r17,lo8(-32)
 4923 013c 01F0      		breq .L289
 4924 013e 123E      		cpi r17,lo8(-30)
 4925 0140 01F0      		breq .+2
 4926 0142 00C0      		rjmp .L331
 4927 0144 00C0      		rjmp .L333
 4928               	.L289:
 4929               	.LSM806:
 4930 0146 1092 0000 		sts ringbufferstatus,__zero_reg__
 4931               	.LSM807:
 4932 014a 1092 0000 		sts motorstatus,__zero_reg__
 4933               	.LSM808:
 4934 014e 9092 0000 		sts sendbuffer,r9
 4935               	.LSM809:
 4936 0152 8091 0000 		lds r24,abschnittnummer
 4937 0156 9091 0000 		lds r25,(abschnittnummer)+1
 4938 015a 8093 0000 		sts sendbuffer+5,r24
 4939               	.LSM810:
 4940 015e 8091 0000 		lds r24,ladeposition
 4941 0162 8093 0000 		sts sendbuffer+6,r24
 4942               	.LSM811:
 4943 0166 80E0      		ldi r24,lo8(sendbuffer)
 4944 0168 90E0      		ldi r25,hi8(sendbuffer)
 4945 016a 62E3      		ldi r22,lo8(50)
 4946 016c 0E94 0000 		call usb_rawhid_send
 4947               	.LSM812:
 4948 0170 1092 0000 		sts sendbuffer,__zero_reg__
 4949               	.LSM813:
 4950 0174 1092 0000 		sts sendbuffer+5,__zero_reg__
 4951               	.LSM814:
 4952 0178 1092 0000 		sts sendbuffer+6,__zero_reg__
 4953               	.LSM815:
 4954 017c 1092 0000 		sts ladeposition,__zero_reg__
 4955               	.LSM816:
 4956 0180 1092 0000 		sts (AbschnittCounter)+1,__zero_reg__
 4957 0184 1092 0000 		sts AbschnittCounter,__zero_reg__
 4958               	.LSM817:
 4959 0188 1092 0000 		sts (StepCounterA)+1,__zero_reg__
 4960 018c 1092 0000 		sts StepCounterA,__zero_reg__
 4961               	.LSM818:
 4962 0190 1092 0000 		sts (StepCounterB)+1,__zero_reg__
 4963 0194 1092 0000 		sts StepCounterB,__zero_reg__
 4964               	.LSM819:
 4965 0198 1092 0000 		sts (StepCounterC)+1,__zero_reg__
 4966 019c 1092 0000 		sts StepCounterC,__zero_reg__
 4967               	.LSM820:
 4968 01a0 1092 0000 		sts (StepCounterD)+1,__zero_reg__
 4969 01a4 1092 0000 		sts StepCounterD,__zero_reg__
 4970               	.LSM821:
 4971 01a8 1092 0000 		sts (CounterA)+1,__zero_reg__
 4972 01ac 1092 0000 		sts CounterA,__zero_reg__
 4973               	.LSM822:
 4974 01b0 1092 0000 		sts (CounterB)+1,__zero_reg__
 4975 01b4 1092 0000 		sts CounterB,__zero_reg__
 4976               	.LSM823:
 4977 01b8 1092 0000 		sts (CounterC)+1,__zero_reg__
 4978 01bc 1092 0000 		sts CounterC,__zero_reg__
 4979               	.LSM824:
 4980 01c0 1092 0000 		sts (CounterD)+1,__zero_reg__
 4981 01c4 1092 0000 		sts CounterD,__zero_reg__
 4982 01c8 00C0      		rjmp .L291
 4983               	.L333:
 4984               	.LSM825:
 4985 01ca 1093 0000 		sts PWM,r17
 4986               	.LSM826:
 4987 01ce 0093 0000 		sts sendbuffer,r16
 4988               	.LSM827:
 4989 01d2 80E0      		ldi r24,lo8(sendbuffer)
 4990 01d4 90E0      		ldi r25,hi8(sendbuffer)
 4991 01d6 62E3      		ldi r22,lo8(50)
 4992 01d8 0E94 0000 		call usb_rawhid_send
 4993               	.LSM828:
 4994 01dc 1092 0000 		sts sendbuffer,__zero_reg__
 4995               	.LSM829:
 4996 01e0 1092 0000 		sts sendbuffer+5,__zero_reg__
 4997               	.LSM830:
 4998 01e4 1092 0000 		sts sendbuffer+6,__zero_reg__
 4999 01e8 00C0      		rjmp .L291
 5000               	.L331:
 5001               	.LBB378:
 5002               	.LSM831:
 5003 01ea 8091 0000 		lds r24,buffer+18
 5004               	.LVL360:
 5005               	.LSM832:
 5006 01ee 2091 0000 		lds r18,buffer+19
 5007               	.LVL361:
 5008               	.LSM833:
 5009 01f2 D82F      		mov r29,r24
 5010 01f4 C0E0      		ldi r28,lo8(0)
 5011 01f6 D093 0000 		sts (abschnittnummer)+1,r29
 5012 01fa C093 0000 		sts abschnittnummer,r28
 5013               	.LSM834:
 5014 01fe 8091 0000 		lds r24,abschnittnummer
 5015 0202 9091 0000 		lds r25,(abschnittnummer)+1
 5016               	.LVL362:
 5017 0206 820F      		add r24,r18
 5018 0208 911D      		adc r25,__zero_reg__
 5019 020a 9093 0000 		sts (abschnittnummer)+1,r25
 5020 020e 8093 0000 		sts abschnittnummer,r24
 5021               	.LSM835:
 5022 0212 8091 0000 		lds r24,abschnittnummer
 5023 0216 9091 0000 		lds r25,(abschnittnummer)+1
 5024 021a 892B      		or r24,r25
 5025 021c 01F0      		breq .+2
 5026 021e 00C0      		rjmp .L292
 5027 0220 40E0      		ldi r20,lo8(0)
 5028 0222 50E0      		ldi r21,hi8(0)
 5029 0224 00C0      		rjmp .L293
 5030               	.LVL363:
 5031               	.L294:
 5032               	.LBB376:
 5033               	.LSM836:
 5034 0226 F901      		movw r30,r18
 5035 0228 E80F      		add r30,r24
 5036 022a F91F      		adc r31,r25
 5037 022c E050      		subi r30,lo8(-(CNCDaten))
 5038 022e F040      		sbci r31,hi8(-(CNCDaten))
 5039 0230 1082      		st Z,__zero_reg__
 5040 0232 0196      		adiw r24,1
 5041               	.LSM837:
 5042 0234 8032      		cpi r24,32
 5043 0236 9105      		cpc r25,__zero_reg__
 5044 0238 01F4      		brne .L294
 5045 023a 4F5F      		subi r20,lo8(-(1))
 5046 023c 5F4F      		sbci r21,hi8(-(1))
 5047               	.LSM838:
 5048 023e 4430      		cpi r20,4
 5049 0240 5105      		cpc r21,__zero_reg__
 5050 0242 01F0      		breq .L295
 5051               	.LVL364:
 5052               	.L293:
 5053 0244 80E0      		ldi r24,lo8(0)
 5054 0246 90E0      		ldi r25,hi8(0)
 5055               	.LSM839:
 5056 0248 9A01      		movw r18,r20
 5057               	.LVL365:
 5058 024a 65E0      		ldi r22,5
 5059 024c 220F      	1:	lsl r18
 5060 024e 331F      		rol r19
 5061 0250 6A95      		dec r22
 5062 0252 01F4      		brne 1b
 5063 0254 240F      		add r18,r20
 5064 0256 351F      		adc r19,r21
 5065 0258 00C0      		rjmp .L294
 5066               	.L295:
 5067               	.LSM840:
 5068 025a 1092 0000 		sts ladeposition,__zero_reg__
 5069               	.LSM841:
 5070 025e D092 0000 		sts (endposition)+1,r13
 5071 0262 C092 0000 		sts endposition,r12
 5072               	.LSM842:
 5073 0266 1092 0000 		sts anschlagstatus,__zero_reg__
 5074               	.LSM843:
 5075 026a 1092 0000 		sts motorstatus,__zero_reg__
 5076               	.LSM844:
 5077 026e 1092 0000 		sts ringbufferstatus,__zero_reg__
 5078               	.LSM845:
 5079 0272 8091 0000 		lds r24,ringbufferstatus
 5080 0276 8068      		ori r24,lo8(-128)
 5081 0278 8093 0000 		sts ringbufferstatus,r24
 5082               	.LSM846:
 5083 027c 1092 0000 		sts (AbschnittCounter)+1,__zero_reg__
 5084 0280 1092 0000 		sts AbschnittCounter,__zero_reg__
 5085               	.LSM847:
 5086 0284 1092 0000 		sts sendbuffer+5,__zero_reg__
 5087               	.LSM848:
 5088 0288 1093 0000 		sts sendbuffer+6,r17
 5089               	.LSM849:
 5090 028c 103F      		cpi r17,lo8(-16)
 5091 028e 01F4      		brne .L296
 5092               	.LSM850:
 5093 0290 1093 0000 		sts sendbuffer+5,r17
 5094               	.LSM851:
 5095 0294 6092 0000 		sts sendbuffer,r6
 5096               	.LSM852:
 5097 0298 8091 0000 		lds r24,cncstatus
 5098 029c 8860      		ori r24,lo8(8)
 5099 029e 00C0      		rjmp .L332
 5100               	.L296:
 5101               	.LSM853:
 5102 02a0 7092 0000 		sts sendbuffer,r7
 5103               	.LSM854:
 5104 02a4 8091 0000 		lds r24,cncstatus
 5105 02a8 877F      		andi r24,lo8(-9)
 5106               	.L332:
 5107 02aa 8093 0000 		sts cncstatus,r24
 5108               	.LSM855:
 5109 02ae 80E0      		ldi r24,lo8(sendbuffer)
 5110 02b0 90E0      		ldi r25,hi8(sendbuffer)
 5111 02b2 62E3      		ldi r22,lo8(50)
 5112 02b4 0E94 0000 		call usb_rawhid_send
 5113               	.LSM856:
 5114 02b8 1092 0000 		sts sendbuffer,__zero_reg__
 5115               	.LSM857:
 5116 02bc 1092 0000 		sts sendbuffer+5,__zero_reg__
 5117               	.LSM858:
 5118 02c0 1092 0000 		sts sendbuffer+6,__zero_reg__
 5119               	.LVL366:
 5120               	.L292:
 5121               	.LBE376:
 5122               	.LSM859:
 5123 02c4 8091 0000 		lds r24,buffer+17
 5124 02c8 81FF      		sbrs r24,1
 5125 02ca 00C0      		rjmp .L298
 5126               	.LSM860:
 5127 02cc 8091 0000 		lds r24,ringbufferstatus
 5128 02d0 8061      		ori r24,lo8(16)
 5129 02d2 8093 0000 		sts ringbufferstatus,r24
 5130               	.LSM861:
 5131 02d6 8091 0000 		lds r24,ringbufferstatus
 5132 02da 87FF      		sbrs r24,7
 5133 02dc 00C0      		rjmp .L298
 5134               	.LSM862:
 5135 02de 8091 0000 		lds r24,abschnittnummer
 5136 02e2 9091 0000 		lds r25,(abschnittnummer)+1
 5137 02e6 9093 0000 		sts (endposition)+1,r25
 5138 02ea 8093 0000 		sts endposition,r24
 5139               	.L298:
 5140               	.LBB377:
 5141               	.LSM863:
 5142 02ee 8091 0000 		lds r24,abschnittnummer
 5143 02f2 9091 0000 		lds r25,(abschnittnummer)+1
 5144               	.LSM864:
 5145 02f6 8370      		andi r24,lo8(3)
 5146               	.LVL367:
 5147               	.LSM865:
 5148 02f8 2091 0000 		lds r18,abschnittnummer
 5149 02fc 3091 0000 		lds r19,(abschnittnummer)+1
 5150               	.LVL368:
 5151 0300 20E0      		ldi r18,lo8(0)
 5152 0302 30E0      		ldi r19,hi8(0)
 5153               	.LSM866:
 5154 0304 90E0      		ldi r25,lo8(0)
 5155 0306 AC01      		movw r20,r24
 5156               	.LVL369:
 5157 0308 B5E0      		ldi r27,5
 5158 030a 440F      	1:	lsl r20
 5159 030c 551F      		rol r21
 5160 030e BA95      		dec r27
 5161 0310 01F4      		brne 1b
 5162 0312 480F      		add r20,r24
 5163 0314 591F      		adc r21,r25
 5164               	.L299:
 5165 0316 F901      		movw r30,r18
 5166 0318 E050      		subi r30,lo8(-(buffer))
 5167 031a F040      		sbci r31,hi8(-(buffer))
 5168 031c 8081      		ld r24,Z
 5169 031e FA01      		movw r30,r20
 5170 0320 E20F      		add r30,r18
 5171 0322 F31F      		adc r31,r19
 5172 0324 E050      		subi r30,lo8(-(CNCDaten))
 5173 0326 F040      		sbci r31,hi8(-(CNCDaten))
 5174 0328 8083      		st Z,r24
 5175 032a 2F5F      		subi r18,lo8(-(1))
 5176 032c 3F4F      		sbci r19,hi8(-(1))
 5177               	.LSM867:
 5178 032e 2032      		cpi r18,32
 5179 0330 3105      		cpc r19,__zero_reg__
 5180 0332 01F4      		brne .L299
 5181               	.LBE377:
 5182               	.LSM868:
 5183 0334 8091 0000 		lds r24,abschnittnummer
 5184 0338 9091 0000 		lds r25,(abschnittnummer)+1
 5185 033c 892B      		or r24,r25
 5186 033e 01F4      		brne .L300
 5187 0340 8091 0000 		lds r24,endposition
 5188 0344 9091 0000 		lds r25,(endposition)+1
 5189 0348 892B      		or r24,r25
 5190 034a 01F0      		breq .L300
 5191               	.LSM869:
 5192 034c 8091 0000 		lds r24,abschnittnummer
 5193 0350 9091 0000 		lds r25,(abschnittnummer)+1
 5194 0354 8093 0000 		sts sendbuffer+5,r24
 5195               	.LSM870:
 5196 0358 8091 0000 		lds r24,ladeposition
 5197 035c 8093 0000 		sts sendbuffer+6,r24
 5198               	.LSM871:
 5199 0360 8092 0000 		sts sendbuffer,r8
 5200               	.LSM872:
 5201 0364 80E0      		ldi r24,lo8(sendbuffer)
 5202 0366 90E0      		ldi r25,hi8(sendbuffer)
 5203 0368 62E3      		ldi r22,lo8(50)
 5204 036a 0E94 0000 		call usb_rawhid_send
 5205               	.LSM873:
 5206 036e 1092 0000 		sts sendbuffer,__zero_reg__
 5207               	.LSM874:
 5208 0372 1092 0000 		sts sendbuffer+5,__zero_reg__
 5209               	.LSM875:
 5210 0376 1092 0000 		sts sendbuffer+6,__zero_reg__
 5211               	.L300:
 5212               	.LSM876:
 5213 037a 8091 0000 		lds r24,ringbufferstatus
 5214 037e 8F77      		andi r24,lo8(127)
 5215 0380 8093 0000 		sts ringbufferstatus,r24
 5216               	.LSM877:
 5217 0384 8091 0000 		lds r24,abschnittnummer
 5218 0388 9091 0000 		lds r25,(abschnittnummer)+1
 5219 038c 0197      		sbiw r24,1
 5220 038e 01F0      		breq .L301
 5221 0390 8091 0000 		lds r24,abschnittnummer
 5222 0394 9091 0000 		lds r25,(abschnittnummer)+1
 5223 0398 892B      		or r24,r25
 5224 039a 01F4      		brne .L291
 5225 039c 8091 0000 		lds r24,ringbufferstatus
 5226 03a0 84FF      		sbrs r24,4
 5227 03a2 00C0      		rjmp .L291
 5228               	.L301:
 5229               	.LSM878:
 5230 03a4 8091 0000 		lds r24,ringbufferstatus
 5231 03a8 8F7E      		andi r24,lo8(-17)
 5232 03aa 8093 0000 		sts ringbufferstatus,r24
 5233               	.LSM879:
 5234 03ae 8091 0000 		lds r24,ringbufferstatus
 5235 03b2 8460      		ori r24,lo8(4)
 5236 03b4 8093 0000 		sts ringbufferstatus,r24
 5237               	.L291:
 5238               	.LBE378:
 5239               	.LSM880:
 5240               	/* #APP */
 5241               	 ;  1205 "TWI_Slave.c" 1
 5242 03b8 7894      		sei
 5243               	 ;  0 "" 2
 5244               	/* #NOAPP */
 5245               	.L287:
 5246               	.LBE379:
 5247               	.LSM881:
 5248 03ba 8091 0000 		lds r24,ringbufferstatus
 5249 03be 82FF      		sbrs r24,2
 5250 03c0 00C0      		rjmp .L302
 5251               	.LBB380:
 5252               	.LSM882:
 5253               	/* #APP */
 5254               	 ;  1214 "TWI_Slave.c" 1
 5255 03c2 F894      		cli
 5256               	 ;  0 "" 2
 5257               	.LSM883:
 5258               	/* #NOAPP */
 5259 03c4 8091 0000 		lds r24,ringbufferstatus
 5260 03c8 8B7F      		andi r24,lo8(-5)
 5261 03ca 8093 0000 		sts ringbufferstatus,r24
 5262               	.LSM884:
 5263 03ce 1092 0000 		sts ladeposition,__zero_reg__
 5264               	.LSM885:
 5265 03d2 1092 0000 		sts (AbschnittCounter)+1,__zero_reg__
 5266 03d6 1092 0000 		sts AbschnittCounter,__zero_reg__
 5267               	.LSM886:
 5268 03da 80E0      		ldi r24,lo8(CNCDaten)
 5269 03dc 90E0      		ldi r25,hi8(CNCDaten)
 5270 03de 0E94 0000 		call AbschnittLaden
 5271               	.LSM887:
 5272 03e2 9091 0000 		lds r25,ladeposition
 5273 03e6 9F5F      		subi r25,lo8(-(1))
 5274 03e8 9093 0000 		sts ladeposition,r25
 5275               	.LSM888:
 5276 03ec 8230      		cpi r24,lo8(2)
 5277 03ee 01F4      		brne .L303
 5278               	.LSM889:
 5279 03f0 8091 0000 		lds r24,ringbufferstatus
 5280 03f4 8062      		ori r24,lo8(32)
 5281 03f6 8093 0000 		sts ringbufferstatus,r24
 5282               	.L303:
 5283               	.LSM890:
 5284 03fa 8091 0000 		lds r24,AbschnittCounter
 5285 03fe 9091 0000 		lds r25,(AbschnittCounter)+1
 5286 0402 0196      		adiw r24,1
 5287 0404 9093 0000 		sts (AbschnittCounter)+1,r25
 5288 0408 8093 0000 		sts AbschnittCounter,r24
 5289               	.LSM891:
 5290               	/* #APP */
 5291               	 ;  1229 "TWI_Slave.c" 1
 5292 040c 7894      		sei
 5293               	 ;  0 "" 2
 5294               	/* #NOAPP */
 5295               	.L302:
 5296               	.LBE380:
 5297               	.LSM892:
 5298 040e 369B      		sbis 38-32,6
 5299 0410 00C0      		rjmp .L304
 5300               	.LSM893:
 5301 0412 8091 0000 		lds r24,anschlagstatus
 5302 0416 84FF      		sbrs r24,4
 5303 0418 00C0      		rjmp .L305
 5304               	.LSM894:
 5305 041a 8091 0000 		lds r24,anschlagstatus
 5306 041e 8F7E      		andi r24,lo8(-17)
 5307 0420 8093 0000 		sts anschlagstatus,r24
 5308 0424 00C0      		rjmp .L305
 5309               	.L304:
 5310               	.LSM895:
 5311 0426 80E0      		ldi r24,lo8(0)
 5312 0428 0E94 0000 		call AnschlagVonMotor
 5313               	.L305:
 5314               	.LSM896:
 5315 042c 8091 0000 		lds r24,StepCounterA
 5316 0430 9091 0000 		lds r25,(StepCounterA)+1
 5317 0434 892B      		or r24,r25
 5318 0436 01F0      		breq .L306
 5319 0438 2091 0000 		lds r18,CounterA
 5320 043c 3091 0000 		lds r19,(CounterA)+1
 5321 0440 8091 0000 		lds r24,DelayA
 5322 0444 9091 0000 		lds r25,(DelayA)+1
 5323 0448 2817      		cp r18,r24
 5324 044a 3907      		cpc r19,r25
 5325 044c 00F0      		brlo .L306
 5326 044e 8091 0000 		lds r24,anschlagstatus
 5327 0452 84FD      		sbrc r24,4
 5328 0454 00C0      		rjmp .L306
 5329               	.LSM897:
 5330               	/* #APP */
 5331               	 ;  1258 "TWI_Slave.c" 1
 5332 0456 F894      		cli
 5333               	 ;  0 "" 2
 5334               	.LSM898:
 5335               	/* #NOAPP */
 5336 0458 4098      		cbi 40-32,0
 5337               	.LSM899:
 5338 045a 1092 0000 		sts (CounterA)+1,__zero_reg__
 5339 045e 1092 0000 		sts CounterA,__zero_reg__
 5340               	.LSM900:
 5341 0462 8091 0000 		lds r24,StepCounterA
 5342 0466 9091 0000 		lds r25,(StepCounterA)+1
 5343 046a 0197      		sbiw r24,1
 5344 046c 9093 0000 		sts (StepCounterA)+1,r25
 5345 0470 8093 0000 		sts StepCounterA,r24
 5346               	.LSM901:
 5347 0474 8091 0000 		lds r24,StepCounterA
 5348 0478 9091 0000 		lds r25,(StepCounterA)+1
 5349 047c 892B      		or r24,r25
 5350 047e 01F4      		brne .L307
 5351 0480 8091 0000 		lds r24,motorstatus
 5352 0484 80FF      		sbrs r24,0
 5353 0486 00C0      		rjmp .L307
 5354               	.LSM902:
 5355 0488 80E0      		ldi r24,lo8(0)
 5356 048a 0E94 0000 		call StepEndVonMotor
 5357               	.L307:
 5358               	.LSM903:
 5359               	/* #APP */
 5360               	 ;  1271 "TWI_Slave.c" 1
 5361 048e 7894      		sei
 5362               	 ;  0 "" 2
 5363               	/* #NOAPP */
 5364 0490 00C0      		rjmp .L308
 5365               	.L306:
 5366               	.LSM904:
 5367 0492 409A      		sbi 40-32,0
 5368               	.LSM905:
 5369 0494 8091 0000 		lds r24,StepCounterA
 5370 0498 9091 0000 		lds r25,(StepCounterA)+1
 5371 049c 892B      		or r24,r25
 5372 049e 01F4      		brne .L308
 5373               	.LSM906:
 5374 04a0 429A      		sbi 40-32,2
 5375               	.L308:
 5376               	.LSM907:
 5377 04a2 379B      		sbis 38-32,7
 5378 04a4 00C0      		rjmp .L309
 5379               	.LSM908:
 5380 04a6 8091 0000 		lds r24,anschlagstatus
 5381 04aa 85FF      		sbrs r24,5
 5382 04ac 00C0      		rjmp .L310
 5383               	.LSM909:
 5384 04ae 8091 0000 		lds r24,anschlagstatus
 5385 04b2 8F7D      		andi r24,lo8(-33)
 5386 04b4 8093 0000 		sts anschlagstatus,r24
 5387 04b8 00C0      		rjmp .L310
 5388               	.L309:
 5389               	.LSM910:
 5390 04ba 81E0      		ldi r24,lo8(1)
 5391 04bc 0E94 0000 		call AnschlagVonMotor
 5392               	.L310:
 5393               	.LSM911:
 5394 04c0 8091 0000 		lds r24,StepCounterB
 5395 04c4 9091 0000 		lds r25,(StepCounterB)+1
 5396 04c8 892B      		or r24,r25
 5397 04ca 01F0      		breq .L311
 5398 04cc 2091 0000 		lds r18,CounterB
 5399 04d0 3091 0000 		lds r19,(CounterB)+1
 5400 04d4 8091 0000 		lds r24,DelayB
 5401 04d8 9091 0000 		lds r25,(DelayB)+1
 5402 04dc 2817      		cp r18,r24
 5403 04de 3907      		cpc r19,r25
 5404 04e0 00F0      		brlo .L311
 5405 04e2 8091 0000 		lds r24,anschlagstatus
 5406 04e6 85FD      		sbrc r24,5
 5407 04e8 00C0      		rjmp .L311
 5408               	.LSM912:
 5409               	/* #APP */
 5410               	 ;  1326 "TWI_Slave.c" 1
 5411 04ea F894      		cli
 5412               	 ;  0 "" 2
 5413               	.LSM913:
 5414               	/* #NOAPP */
 5415 04ec 4398      		cbi 40-32,3
 5416               	.LSM914:
 5417 04ee 1092 0000 		sts (CounterB)+1,__zero_reg__
 5418 04f2 1092 0000 		sts CounterB,__zero_reg__
 5419               	.LSM915:
 5420 04f6 8091 0000 		lds r24,StepCounterB
 5421 04fa 9091 0000 		lds r25,(StepCounterB)+1
 5422 04fe 0197      		sbiw r24,1
 5423 0500 9093 0000 		sts (StepCounterB)+1,r25
 5424 0504 8093 0000 		sts StepCounterB,r24
 5425               	.LSM916:
 5426 0508 8091 0000 		lds r24,StepCounterB
 5427 050c 9091 0000 		lds r25,(StepCounterB)+1
 5428 0510 892B      		or r24,r25
 5429 0512 01F4      		brne .L312
 5430 0514 8091 0000 		lds r24,motorstatus
 5431 0518 81FF      		sbrs r24,1
 5432 051a 00C0      		rjmp .L312
 5433               	.LSM917:
 5434 051c 81E0      		ldi r24,lo8(1)
 5435 051e 0E94 0000 		call StepEndVonMotor
 5436               	.L312:
 5437               	.LSM918:
 5438               	/* #APP */
 5439               	 ;  1339 "TWI_Slave.c" 1
 5440 0522 7894      		sei
 5441               	 ;  0 "" 2
 5442               	/* #NOAPP */
 5443 0524 00C0      		rjmp .L313
 5444               	.L311:
 5445               	.LSM919:
 5446 0526 439A      		sbi 40-32,3
 5447               	.LSM920:
 5448 0528 8091 0000 		lds r24,StepCounterB
 5449 052c 9091 0000 		lds r25,(StepCounterB)+1
 5450 0530 892B      		or r24,r25
 5451 0532 01F4      		brne .L313
 5452               	.LSM921:
 5453 0534 459A      		sbi 40-32,5
 5454               	.L313:
 5455               	.LSM922:
 5456 0536 1E9B      		sbis 35-32,6
 5457 0538 00C0      		rjmp .L314
 5458               	.LSM923:
 5459 053a 8091 0000 		lds r24,anschlagstatus
 5460 053e 86FF      		sbrs r24,6
 5461 0540 00C0      		rjmp .L315
 5462               	.LSM924:
 5463 0542 8091 0000 		lds r24,anschlagstatus
 5464 0546 8F7B      		andi r24,lo8(-65)
 5465 0548 8093 0000 		sts anschlagstatus,r24
 5466 054c 00C0      		rjmp .L315
 5467               	.L314:
 5468               	.LSM925:
 5469 054e 82E0      		ldi r24,lo8(2)
 5470 0550 0E94 0000 		call AnschlagVonMotor
 5471               	.L315:
 5472               	.LSM926:
 5473 0554 8091 0000 		lds r24,StepCounterC
 5474 0558 9091 0000 		lds r25,(StepCounterC)+1
 5475 055c 892B      		or r24,r25
 5476 055e 01F0      		breq .L316
 5477 0560 2091 0000 		lds r18,CounterC
 5478 0564 3091 0000 		lds r19,(CounterC)+1
 5479 0568 8091 0000 		lds r24,DelayC
 5480 056c 9091 0000 		lds r25,(DelayC)+1
 5481 0570 2817      		cp r18,r24
 5482 0572 3907      		cpc r19,r25
 5483 0574 00F0      		brlo .L316
 5484 0576 8091 0000 		lds r24,anschlagstatus
 5485 057a 86FD      		sbrc r24,6
 5486 057c 00C0      		rjmp .L316
 5487               	.LSM927:
 5488               	/* #APP */
 5489               	 ;  1381 "TWI_Slave.c" 1
 5490 057e F894      		cli
 5491               	 ;  0 "" 2
 5492               	.LSM928:
 5493               	/* #NOAPP */
 5494 0580 2898      		cbi 37-32,0
 5495               	.LSM929:
 5496 0582 1092 0000 		sts (CounterC)+1,__zero_reg__
 5497 0586 1092 0000 		sts CounterC,__zero_reg__
 5498               	.LSM930:
 5499 058a 8091 0000 		lds r24,StepCounterC
 5500 058e 9091 0000 		lds r25,(StepCounterC)+1
 5501 0592 0197      		sbiw r24,1
 5502 0594 9093 0000 		sts (StepCounterC)+1,r25
 5503 0598 8093 0000 		sts StepCounterC,r24
 5504               	.LSM931:
 5505 059c 8091 0000 		lds r24,StepCounterC
 5506 05a0 9091 0000 		lds r25,(StepCounterC)+1
 5507 05a4 892B      		or r24,r25
 5508 05a6 01F4      		brne .L317
 5509 05a8 8091 0000 		lds r24,motorstatus
 5510 05ac 82FF      		sbrs r24,2
 5511 05ae 00C0      		rjmp .L317
 5512               	.LSM932:
 5513 05b0 82E0      		ldi r24,lo8(2)
 5514 05b2 0E94 0000 		call StepEndVonMotor
 5515               	.L317:
 5516               	.LSM933:
 5517               	/* #APP */
 5518               	 ;  1393 "TWI_Slave.c" 1
 5519 05b6 7894      		sei
 5520               	 ;  0 "" 2
 5521               	/* #NOAPP */
 5522 05b8 00C0      		rjmp .L318
 5523               	.L316:
 5524               	.LSM934:
 5525 05ba 289A      		sbi 37-32,0
 5526               	.LSM935:
 5527 05bc 8091 0000 		lds r24,StepCounterC
 5528 05c0 9091 0000 		lds r25,(StepCounterC)+1
 5529 05c4 892B      		or r24,r25
 5530 05c6 01F4      		brne .L318
 5531               	.LSM936:
 5532 05c8 2A9A      		sbi 37-32,2
 5533               	.L318:
 5534               	.LSM937:
 5535 05ca 1F9B      		sbis 35-32,7
 5536 05cc 00C0      		rjmp .L319
 5537               	.LSM938:
 5538 05ce 8091 0000 		lds r24,anschlagstatus
 5539 05d2 87FF      		sbrs r24,7
 5540 05d4 00C0      		rjmp .L320
 5541               	.LSM939:
 5542 05d6 8091 0000 		lds r24,anschlagstatus
 5543 05da 8F77      		andi r24,lo8(127)
 5544 05dc 8093 0000 		sts anschlagstatus,r24
 5545 05e0 00C0      		rjmp .L320
 5546               	.L319:
 5547               	.LSM940:
 5548 05e2 83E0      		ldi r24,lo8(3)
 5549 05e4 0E94 0000 		call AnschlagVonMotor
 5550               	.L320:
 5551               	.LSM941:
 5552 05e8 8091 0000 		lds r24,StepCounterD
 5553 05ec 9091 0000 		lds r25,(StepCounterD)+1
 5554 05f0 892B      		or r24,r25
 5555 05f2 01F0      		breq .L321
 5556 05f4 2091 0000 		lds r18,CounterD
 5557 05f8 3091 0000 		lds r19,(CounterD)+1
 5558 05fc 8091 0000 		lds r24,DelayD
 5559 0600 9091 0000 		lds r25,(DelayD)+1
 5560 0604 2817      		cp r18,r24
 5561 0606 3907      		cpc r19,r25
 5562 0608 00F0      		brlo .L321
 5563 060a 8091 0000 		lds r24,anschlagstatus
 5564 060e 87FD      		sbrc r24,7
 5565 0610 00C0      		rjmp .L321
 5566               	.LSM942:
 5567               	/* #APP */
 5568               	 ;  1434 "TWI_Slave.c" 1
 5569 0612 F894      		cli
 5570               	 ;  0 "" 2
 5571               	.LSM943:
 5572               	/* #NOAPP */
 5573 0614 2B98      		cbi 37-32,3
 5574               	.LSM944:
 5575 0616 1092 0000 		sts (CounterD)+1,__zero_reg__
 5576 061a 1092 0000 		sts CounterD,__zero_reg__
 5577               	.LSM945:
 5578 061e 8091 0000 		lds r24,StepCounterD
 5579 0622 9091 0000 		lds r25,(StepCounterD)+1
 5580 0626 0197      		sbiw r24,1
 5581 0628 9093 0000 		sts (StepCounterD)+1,r25
 5582 062c 8093 0000 		sts StepCounterD,r24
 5583               	.LSM946:
 5584 0630 8091 0000 		lds r24,StepCounterD
 5585 0634 9091 0000 		lds r25,(StepCounterD)+1
 5586 0638 892B      		or r24,r25
 5587 063a 01F4      		brne .L322
 5588 063c 8091 0000 		lds r24,motorstatus
 5589 0640 83FF      		sbrs r24,3
 5590 0642 00C0      		rjmp .L322
 5591               	.LSM947:
 5592 0644 83E0      		ldi r24,lo8(3)
 5593 0646 0E94 0000 		call StepEndVonMotor
 5594               	.L322:
 5595               	.LSM948:
 5596               	/* #APP */
 5597               	 ;  1445 "TWI_Slave.c" 1
 5598 064a 7894      		sei
 5599               	 ;  0 "" 2
 5600               	/* #NOAPP */
 5601 064c 00C0      		rjmp .L323
 5602               	.L321:
 5603               	.LSM949:
 5604 064e 2B9A      		sbi 37-32,3
 5605               	.LSM950:
 5606 0650 8091 0000 		lds r24,StepCounterD
 5607 0654 9091 0000 		lds r25,(StepCounterD)+1
 5608 0658 892B      		or r24,r25
 5609 065a 01F4      		brne .L323
 5610               	.LSM951:
 5611 065c 2D9A      		sbi 37-32,5
 5612               	.L323:
 5613               	.LSM952:
 5614               	/* #APP */
 5615               	 ;  1463 "TWI_Slave.c" 1
 5616 065e 7894      		sei
 5617               	 ;  0 "" 2
 5618               	.LSM953:
 5619               	/* #NOAPP */
 5620 0660 8FB1      		in r24,47-32
 5621               	.LSM954:
 5622 0662 8FB1      		in r24,47-32
 5623               	.LSM955:
 5624 0664 8091 0000 		lds r24,usbstatus
 5625 0668 00C0      		rjmp .L324
 5626               	.LFE57:
 5628               	.global	rxdata
 5629               	.global	rxdata
 5630               		.section .bss
 5633               	rxdata:
 5634 0000 00        		.skip 1,0
 5635               	.global	do_output
 5636               	.global	do_output
 5639               	do_output:
 5640 0001 00        		.skip 1,0
 5641               	.global	liniencounter
 5642               	.global	liniencounter
 5645               	liniencounter:
 5646 0002 00        		.skip 1,0
 5647               	.global	timer0startwert
 5648               		.data
 5651               	timer0startwert:
 5652 001c 40        		.byte	64
 5653               	.global	usbstatus
 5654               	.global	usbstatus
 5655               		.section .bss
 5658               	usbstatus:
 5659 0003 00        		.skip 1,0
 5660               	.global	status
 5661               	.global	status
 5664               	status:
 5665 0004 00        		.skip 1,0
 5666               	.global	PWM
 5667               	.global	PWM
 5670               	PWM:
 5671 0005 00        		.skip 1,0
 5672               	.global	CounterA
 5673               	.global	CounterA
 5676               	CounterA:
 5677 0006 0000      		.skip 2,0
 5678               	.global	CounterB
 5679               	.global	CounterB
 5682               	CounterB:
 5683 0008 0000      		.skip 2,0
 5684               	.global	CounterC
 5685               	.global	CounterC
 5688               	CounterC:
 5689 000a 0000      		.skip 2,0
 5690               	.global	CounterD
 5691               	.global	CounterD
 5694               	CounterD:
 5695 000c 0000      		.skip 2,0
 5696               	.global	DelayA
 5697               		.data
 5700               	DelayA:
 5701 001d 1800      		.word	24
 5702               	.global	DelayB
 5705               	DelayB:
 5706 001f 1800      		.word	24
 5707               	.global	DelayC
 5710               	DelayC:
 5711 0021 1800      		.word	24
 5712               	.global	DelayD
 5715               	DelayD:
 5716 0023 1800      		.word	24
 5717               	.global	StepCounterA
 5718               	.global	StepCounterA
 5719               		.section .bss
 5722               	StepCounterA:
 5723 000e 0000      		.skip 2,0
 5724               	.global	StepCounterB
 5725               	.global	StepCounterB
 5728               	StepCounterB:
 5729 0010 0000      		.skip 2,0
 5730               	.global	StepCounterC
 5731               	.global	StepCounterC
 5734               	StepCounterC:
 5735 0012 0000      		.skip 2,0
 5736               	.global	StepCounterD
 5737               	.global	StepCounterD
 5740               	StepCounterD:
 5741 0014 0000      		.skip 2,0
 5742               	.global	timer2Counter
 5743               	.global	timer2Counter
 5746               	timer2Counter:
 5747 0016 0000      		.skip 2,0
 5748               		.lcomm pwmposition,1
 5749               		.lcomm buffer,32
 5750               		.lcomm sendbuffer,32
 5751               		.lcomm ringbufferstatus,1
 5752               		.lcomm motorstatus,1
 5753               		.lcomm abschnittnummer,2
 5754               		.lcomm ladeposition,1
 5755               		.lcomm AbschnittCounter,2
 5756               		.data
 5759               	endposition:
 5760 0025 FFFF      		.word	-1
 5761               		.lcomm anschlagstatus,1
 5762               		.lcomm cncstatus,1
 5763               		.lcomm richtung,1
 5764               		.section	.progmem.data,"a",@progbits
 5767               	descriptor_list:
 5768 0000 0001      		.word	256
 5769 0002 0000      		.word	0
 5770 0004 0000      		.word	device_descriptor
 5771 0006 12        		.byte	18
 5772 0007 0002      		.word	512
 5773 0009 0000      		.word	0
 5774 000b 0000      		.word	config1_descriptor
 5775 000d 29        		.byte	41
 5776 000e 0022      		.word	8704
 5777 0010 0000      		.word	0
 5778 0012 0000      		.word	rawhid_hid_report_desc
 5779 0014 1C        		.byte	28
 5780 0015 0021      		.word	8448
 5781 0017 0000      		.word	0
 5782 0019 0000      		.word	config1_descriptor+18
 5783 001b 09        		.byte	9
 5784 001c 0003      		.word	768
 5785 001e 0000      		.word	0
 5786 0020 0000      		.word	string0
 5787 0022 04        		.byte	4
 5788 0023 0103      		.word	769
 5789 0025 0904      		.word	1033
 5790 0027 0000      		.word	string1
 5791 0029 22        		.byte	34
 5792 002a 0203      		.word	770
 5793 002c 0904      		.word	1033
 5794 002e 0000      		.word	string2
 5795 0030 10        		.byte	16
 5796               		.lcomm usb_configuration,1
 5799               	endpoint_config_table:
 5800 0031 01        		.byte	1
 5801 0032 C1        		.byte	-63
 5802 0033 26        		.byte	38
 5803 0034 01        		.byte	1
 5804 0035 C0        		.byte	-64
 5805 0036 26        		.byte	38
 5806 0037 00        		.byte	0
 5807 0038 00        		.byte	0
 5808               		.lcomm rx_timeout_count,1
 5809               		.lcomm tx_timeout_count,1
 5810               		.data
 5811               	.LC4:
 5812 0027 4D4F 00   		.string	"MO"
 5813               	.LC5:
 5814 002a 4449 00   		.string	"DI"
 5815               	.LC6:
 5816 002d 4D49 00   		.string	"MI"
 5817               	.LC7:
 5818 0030 444F 00   		.string	"DO"
 5819               	.LC8:
 5820 0033 4652 00   		.string	"FR"
 5821               	.LC9:
 5822 0036 5341 00   		.string	"SA"
 5823               	.LC10:
 5824 0039 534F 00   		.string	"SO"
 5827               	C.1.1917:
 5828 003c 0000      		.word	.LC4
 5829 003e 0000      		.word	.LC5
 5830 0040 0000      		.word	.LC6
 5831 0042 0000      		.word	.LC7
 5832 0044 0000      		.word	.LC8
 5833 0046 0000      		.word	.LC9
 5834 0048 0000      		.word	.LC10
 5835               		.lcomm CNCDaten,132
 5836               		.comm ADCWert16,3,1
 5837               		.comm buffer_adr,1,1
 5838               		.section	.progmem.data
 5841               	device_descriptor:
 5842 0039 12        		.byte	18
 5843 003a 01        		.byte	1
 5844 003b 00        		.byte	0
 5845 003c 02        		.byte	2
 5846 003d 00        		.byte	0
 5847 003e 00        		.byte	0
 5848 003f 00        		.byte	0
 5849 0040 20        		.byte	32
 5850 0041 C0        		.byte	-64
 5851 0042 16        		.byte	22
 5852 0043 80        		.byte	-128
 5853 0044 04        		.byte	4
 5854 0045 00        		.byte	0
 5855 0046 01        		.byte	1
 5856 0047 01        		.byte	1
 5857 0048 02        		.byte	2
 5858 0049 00        		.byte	0
 5859 004a 01        		.byte	1
 5862               	config1_descriptor:
 5863 004b 09        		.byte	9
 5864 004c 02        		.byte	2
 5865 004d 29        		.byte	41
 5866 004e 00        		.byte	0
 5867 004f 01        		.byte	1
 5868 0050 01        		.byte	1
 5869 0051 00        		.byte	0
 5870 0052 C0        		.byte	-64
 5871 0053 32        		.byte	50
 5872 0054 09        		.byte	9
 5873 0055 04        		.byte	4
 5874 0056 00        		.byte	0
 5875 0057 00        		.byte	0
 5876 0058 02        		.byte	2
 5877 0059 03        		.byte	3
 5878 005a 00        		.byte	0
 5879 005b 00        		.byte	0
 5880 005c 00        		.byte	0
 5881 005d 09        		.byte	9
 5882 005e 21        		.byte	33
 5883 005f 11        		.byte	17
 5884 0060 01        		.byte	1
 5885 0061 00        		.byte	0
 5886 0062 01        		.byte	1
 5887 0063 22        		.byte	34
 5888 0064 1C        		.byte	28
 5889 0065 00        		.byte	0
 5890 0066 07        		.byte	7
 5891 0067 05        		.byte	5
 5892 0068 81        		.byte	-127
 5893 0069 03        		.byte	3
 5894 006a 20        		.byte	32
 5895 006b 00        		.byte	0
 5896 006c 02        		.byte	2
 5897 006d 07        		.byte	7
 5898 006e 05        		.byte	5
 5899 006f 02        		.byte	2
 5900 0070 03        		.byte	3
 5901 0071 20        		.byte	32
 5902 0072 00        		.byte	0
 5903 0073 08        		.byte	8
 5906               	rawhid_hid_report_desc:
 5907 0074 06        		.byte	6
 5908 0075 AB        		.byte	-85
 5909 0076 FF        		.byte	-1
 5910 0077 0A        		.byte	10
 5911 0078 00        		.byte	0
 5912 0079 02        		.byte	2
 5913 007a A1        		.byte	-95
 5914 007b 01        		.byte	1
 5915 007c 75        		.byte	117
 5916 007d 08        		.byte	8
 5917 007e 15        		.byte	21
 5918 007f 00        		.byte	0
 5919 0080 26        		.byte	38
 5920 0081 FF        		.byte	-1
 5921 0082 00        		.byte	0
 5922 0083 95        		.byte	-107
 5923 0084 20        		.byte	32
 5924 0085 09        		.byte	9
 5925 0086 01        		.byte	1
 5926 0087 81        		.byte	-127
 5927 0088 02        		.byte	2
 5928 0089 95        		.byte	-107
 5929 008a 20        		.byte	32
 5930 008b 09        		.byte	9
 5931 008c 02        		.byte	2
 5932 008d 91        		.byte	-111
 5933 008e 02        		.byte	2
 5934 008f C0        		.byte	-64
 5937               	string0:
 5938 0090 04        		.byte	4
 5939 0091 03        		.byte	3
 5940 0092 0904      		.word	1033
 5943               	string1:
 5944 0094 22        		.byte	34
 5945 0095 03        		.byte	3
 5946 0096 5200      		.string	"R"
 5947 0098 7500      		.string	"u"
 5948 009a 6500      		.string	"e"
 5949 009c 6400      		.string	"d"
 5950 009e 6900      		.string	"i"
 5951 00a0 5F00      		.string	"_"
 5952 00a2 4800      		.string	"H"
 5953 00a4 6500      		.string	"e"
 5954 00a6 6900      		.string	"i"
 5955 00a8 6D00      		.string	"m"
 5956 00aa 6C00      		.string	"l"
 5957 00ac 6900      		.string	"i"
 5958 00ae 6300      		.string	"c"
 5959 00b0 6800      		.string	"h"
 5960 00b2 6500      		.string	"e"
 5961 00b4 7200      		.string	"r"
 5962 00b6 00        		.string	""
 5963 00b7 00        		.string	""
 5966               	string2:
 5967 00b8 10        		.byte	16
 5968 00b9 03        		.byte	3
 5969 00ba 4300      		.string	"C"
 5970 00bc 4E00      		.string	"N"
 5971 00be 4300      		.string	"C"
 5972 00c0 5F00      		.string	"_"
 5973 00c2 5500      		.string	"U"
 5974 00c4 5300      		.string	"S"
 5975 00c6 4200      		.string	"B"
 5976 00c8 00        		.string	""
 5977 00c9 00        		.string	""
 6378               	.Letext0:
DEFINED SYMBOLS
                            *ABS*:00000000 TWI_Slave.c
/var/folders/vm/650ssqs08xl63r006s7ds01h0000gp/T//ccCcD5y7.s:2      *ABS*:0000003f __SREG__
/var/folders/vm/650ssqs08xl63r006s7ds01h0000gp/T//ccCcD5y7.s:3      *ABS*:0000003e __SP_H__
/var/folders/vm/650ssqs08xl63r006s7ds01h0000gp/T//ccCcD5y7.s:4      *ABS*:0000003d __SP_L__
/var/folders/vm/650ssqs08xl63r006s7ds01h0000gp/T//ccCcD5y7.s:5      *ABS*:00000034 __CCP__
/var/folders/vm/650ssqs08xl63r006s7ds01h0000gp/T//ccCcD5y7.s:6      *ABS*:00000000 __tmp_reg__
/var/folders/vm/650ssqs08xl63r006s7ds01h0000gp/T//ccCcD5y7.s:7      *ABS*:00000001 __zero_reg__
/var/folders/vm/650ssqs08xl63r006s7ds01h0000gp/T//ccCcD5y7.s:19     .text.lcddelay_ms:00000000 lcddelay_ms
/var/folders/vm/650ssqs08xl63r006s7ds01h0000gp/T//ccCcD5y7.s:60     .text.lcd_backlight:00000000 lcd_backlight
/var/folders/vm/650ssqs08xl63r006s7ds01h0000gp/T//ccCcD5y7.s:81     .text.lcd_load_byte:00000000 lcd_load_byte
/var/folders/vm/650ssqs08xl63r006s7ds01h0000gp/T//ccCcD5y7.s:151    .text.lcd_send_cmd:00000000 lcd_send_cmd
/var/folders/vm/650ssqs08xl63r006s7ds01h0000gp/T//ccCcD5y7.s:218    .text.lcd_initialize:00000000 lcd_initialize
/var/folders/vm/650ssqs08xl63r006s7ds01h0000gp/T//ccCcD5y7.s:442    .text.lcd_send_char:00000000 lcd_send_char
/var/folders/vm/650ssqs08xl63r006s7ds01h0000gp/T//ccCcD5y7.s:509    .text.lcd_putc:00000000 lcd_putc
/var/folders/vm/650ssqs08xl63r006s7ds01h0000gp/T//ccCcD5y7.s:528    .text.lcd_puts:00000000 lcd_puts
/var/folders/vm/650ssqs08xl63r006s7ds01h0000gp/T//ccCcD5y7.s:560    .text.lcd_putint1:00000000 lcd_putint1
/var/folders/vm/650ssqs08xl63r006s7ds01h0000gp/T//ccCcD5y7.s:595    .text.lcd_putint2:00000000 lcd_putint2
/var/folders/vm/650ssqs08xl63r006s7ds01h0000gp/T//ccCcD5y7.s:642    .text.lcd_putint16:00000000 lcd_putint16
/var/folders/vm/650ssqs08xl63r006s7ds01h0000gp/T//ccCcD5y7.s:709    .text.lcd_putint:00000000 lcd_putint
/var/folders/vm/650ssqs08xl63r006s7ds01h0000gp/T//ccCcD5y7.s:762    .text.lcd_strobe_E:00000000 lcd_strobe_E
/var/folders/vm/650ssqs08xl63r006s7ds01h0000gp/T//ccCcD5y7.s:801    .text.lcd_cursor_home:00000000 lcd_cursor_home
/var/folders/vm/650ssqs08xl63r006s7ds01h0000gp/T//ccCcD5y7.s:819    .text.lcd_move_cursor:00000000 lcd_move_cursor
/var/folders/vm/650ssqs08xl63r006s7ds01h0000gp/T//ccCcD5y7.s:840    .text.lcd_inc_cursor:00000000 lcd_inc_cursor
/var/folders/vm/650ssqs08xl63r006s7ds01h0000gp/T//ccCcD5y7.s:872    .text.lcd_dec_cursor:00000000 lcd_dec_cursor
/var/folders/vm/650ssqs08xl63r006s7ds01h0000gp/T//ccCcD5y7.s:904    .text.lcd_gotoxy:00000000 lcd_gotoxy
/var/folders/vm/650ssqs08xl63r006s7ds01h0000gp/T//ccCcD5y7.s:933    .text.lcd_cls:00000000 lcd_cls
/var/folders/vm/650ssqs08xl63r006s7ds01h0000gp/T//ccCcD5y7.s:1021   .text.lcd_clr_line:00000000 lcd_clr_line
/var/folders/vm/650ssqs08xl63r006s7ds01h0000gp/T//ccCcD5y7.s:1089   .text.r_uitoa:00000000 r_uitoa
/var/folders/vm/650ssqs08xl63r006s7ds01h0000gp/T//ccCcD5y7.s:1156   .text.r_itoa:00000000 r_itoa
/var/folders/vm/650ssqs08xl63r006s7ds01h0000gp/T//ccCcD5y7.s:1251   .text.r_itoa16:00000000 r_itoa16
/var/folders/vm/650ssqs08xl63r006s7ds01h0000gp/T//ccCcD5y7.s:1313   .text.lcd_puthex:00000000 lcd_puthex
/var/folders/vm/650ssqs08xl63r006s7ds01h0000gp/T//ccCcD5y7.s:1387   .text.lcd_put_frac:00000000 lcd_put_frac
/var/folders/vm/650ssqs08xl63r006s7ds01h0000gp/T//ccCcD5y7.s:1498   .text.lcd_put_zeit:00000000 lcd_put_zeit
/var/folders/vm/650ssqs08xl63r006s7ds01h0000gp/T//ccCcD5y7.s:1582   .text.lcd_put_wochentag:00000000 lcd_put_wochentag
/var/folders/vm/650ssqs08xl63r006s7ds01h0000gp/T//ccCcD5y7.s:5827   .data:0000003c C.1.1917
/var/folders/vm/650ssqs08xl63r006s7ds01h0000gp/T//ccCcD5y7.s:1641   .text.lcd_put_temperatur:00000000 lcd_put_temperatur
/var/folders/vm/650ssqs08xl63r006s7ds01h0000gp/T//ccCcD5y7.s:1790   .text.lcd_put_tempbis99:00000000 lcd_put_tempbis99
/var/folders/vm/650ssqs08xl63r006s7ds01h0000gp/T//ccCcD5y7.s:1940   .text.readKanal16Bit:00000000 readKanal16Bit
/var/folders/vm/650ssqs08xl63r006s7ds01h0000gp/T//ccCcD5y7.s:2007   .text.initADC:00000000 initADC
/var/folders/vm/650ssqs08xl63r006s7ds01h0000gp/T//ccCcD5y7.s:2040   .text.readKanal:00000000 readKanal
/var/folders/vm/650ssqs08xl63r006s7ds01h0000gp/T//ccCcD5y7.s:2089   .text.closeADC:00000000 closeADC
/var/folders/vm/650ssqs08xl63r006s7ds01h0000gp/T//ccCcD5y7.s:2108   .text.readKanalOrig:00000000 readKanalOrig
/var/folders/vm/650ssqs08xl63r006s7ds01h0000gp/T//ccCcD5y7.s:2175   .text.usb_init:00000000 usb_init
/var/folders/vm/650ssqs08xl63r006s7ds01h0000gp/T//ccCcD5y7.s:5763   .bss:00000063 usb_configuration
/var/folders/vm/650ssqs08xl63r006s7ds01h0000gp/T//ccCcD5y7.s:2218   .text.usb_configured:00000000 usb_configured
/var/folders/vm/650ssqs08xl63r006s7ds01h0000gp/T//ccCcD5y7.s:2233   .text.usb_rawhid_recv:00000000 usb_rawhid_recv
/var/folders/vm/650ssqs08xl63r006s7ds01h0000gp/T//ccCcD5y7.s:5796   .bss:00000064 rx_timeout_count
/var/folders/vm/650ssqs08xl63r006s7ds01h0000gp/T//ccCcD5y7.s:2505   .text.usb_rawhid_send:00000000 usb_rawhid_send
/var/folders/vm/650ssqs08xl63r006s7ds01h0000gp/T//ccCcD5y7.s:5808   .bss:00000065 tx_timeout_count
/var/folders/vm/650ssqs08xl63r006s7ds01h0000gp/T//ccCcD5y7.s:2777   .text.__vector_10:00000000 __vector_10
/var/folders/vm/650ssqs08xl63r006s7ds01h0000gp/T//ccCcD5y7.s:2857   .text.__vector_11:00000000 __vector_11
/var/folders/vm/650ssqs08xl63r006s7ds01h0000gp/T//ccCcD5y7.s:5767   .progmem.data:00000000 descriptor_list
/var/folders/vm/650ssqs08xl63r006s7ds01h0000gp/T//ccCcD5y7.s:5799   .progmem.data:00000031 endpoint_config_table
/var/folders/vm/650ssqs08xl63r006s7ds01h0000gp/T//ccCcD5y7.s:3505   .text.slaveinit:00000000 slaveinit
/var/folders/vm/650ssqs08xl63r006s7ds01h0000gp/T//ccCcD5y7.s:3604   .text.delay_ms:00000000 delay_ms
/var/folders/vm/650ssqs08xl63r006s7ds01h0000gp/T//ccCcD5y7.s:3645   .text.timer0:00000000 timer0
/var/folders/vm/650ssqs08xl63r006s7ds01h0000gp/T//ccCcD5y7.s:3678   .text.__vector_15:00000000 __vector_15
/var/folders/vm/650ssqs08xl63r006s7ds01h0000gp/T//ccCcD5y7.s:5746   .bss:00000016 timer2Counter
/var/folders/vm/650ssqs08xl63r006s7ds01h0000gp/T//ccCcD5y7.s:5676   .bss:00000006 CounterA
/var/folders/vm/650ssqs08xl63r006s7ds01h0000gp/T//ccCcD5y7.s:5682   .bss:00000008 CounterB
/var/folders/vm/650ssqs08xl63r006s7ds01h0000gp/T//ccCcD5y7.s:5688   .bss:0000000a CounterC
/var/folders/vm/650ssqs08xl63r006s7ds01h0000gp/T//ccCcD5y7.s:5694   .bss:0000000c CounterD
/var/folders/vm/650ssqs08xl63r006s7ds01h0000gp/T//ccCcD5y7.s:5670   .bss:00000005 PWM
                             .bss:00000018 pwmposition
/var/folders/vm/650ssqs08xl63r006s7ds01h0000gp/T//ccCcD5y7.s:3759   .text.AbschnittLaden:00000000 AbschnittLaden
/var/folders/vm/650ssqs08xl63r006s7ds01h0000gp/T//ccCcD5y7.s:5762   .bss:00000062 richtung
/var/folders/vm/650ssqs08xl63r006s7ds01h0000gp/T//ccCcD5y7.s:5722   .bss:0000000e StepCounterA
/var/folders/vm/650ssqs08xl63r006s7ds01h0000gp/T//ccCcD5y7.s:5700   .data:0000001d DelayA
/var/folders/vm/650ssqs08xl63r006s7ds01h0000gp/T//ccCcD5y7.s:5728   .bss:00000010 StepCounterB
/var/folders/vm/650ssqs08xl63r006s7ds01h0000gp/T//ccCcD5y7.s:5705   .data:0000001f DelayB
/var/folders/vm/650ssqs08xl63r006s7ds01h0000gp/T//ccCcD5y7.s:5734   .bss:00000012 StepCounterC
/var/folders/vm/650ssqs08xl63r006s7ds01h0000gp/T//ccCcD5y7.s:5710   .data:00000021 DelayC
/var/folders/vm/650ssqs08xl63r006s7ds01h0000gp/T//ccCcD5y7.s:5740   .bss:00000014 StepCounterD
/var/folders/vm/650ssqs08xl63r006s7ds01h0000gp/T//ccCcD5y7.s:5715   .data:00000023 DelayD
/var/folders/vm/650ssqs08xl63r006s7ds01h0000gp/T//ccCcD5y7.s:5751   .bss:0000005a motorstatus
/var/folders/vm/650ssqs08xl63r006s7ds01h0000gp/T//ccCcD5y7.s:4142   .text.AnschlagVonMotor:00000000 AnschlagVonMotor
/var/folders/vm/650ssqs08xl63r006s7ds01h0000gp/T//ccCcD5y7.s:5755   .bss:00000060 anschlagstatus
/var/folders/vm/650ssqs08xl63r006s7ds01h0000gp/T//ccCcD5y7.s:5761   .bss:00000061 cncstatus
/var/folders/vm/650ssqs08xl63r006s7ds01h0000gp/T//ccCcD5y7.s:5749   .bss:00000039 sendbuffer
/var/folders/vm/650ssqs08xl63r006s7ds01h0000gp/T//ccCcD5y7.s:5753   .bss:0000005d ladeposition
/var/folders/vm/650ssqs08xl63r006s7ds01h0000gp/T//ccCcD5y7.s:5752   .bss:0000005b abschnittnummer
/var/folders/vm/650ssqs08xl63r006s7ds01h0000gp/T//ccCcD5y7.s:4427   .text.StepEndVonMotor:00000000 StepEndVonMotor
/var/folders/vm/650ssqs08xl63r006s7ds01h0000gp/T//ccCcD5y7.s:5759   .data:00000025 endposition
/var/folders/vm/650ssqs08xl63r006s7ds01h0000gp/T//ccCcD5y7.s:5750   .bss:00000059 ringbufferstatus
/var/folders/vm/650ssqs08xl63r006s7ds01h0000gp/T//ccCcD5y7.s:5809   .bss:00000066 CNCDaten
/var/folders/vm/650ssqs08xl63r006s7ds01h0000gp/T//ccCcD5y7.s:5754   .bss:0000005e AbschnittCounter
/var/folders/vm/650ssqs08xl63r006s7ds01h0000gp/T//ccCcD5y7.s:4671   .text.main:00000000 main
/var/folders/vm/650ssqs08xl63r006s7ds01h0000gp/T//ccCcD5y7.s:5748   .bss:00000019 buffer
/var/folders/vm/650ssqs08xl63r006s7ds01h0000gp/T//ccCcD5y7.s:5658   .bss:00000003 usbstatus
/var/folders/vm/650ssqs08xl63r006s7ds01h0000gp/T//ccCcD5y7.s:5633   .bss:00000000 rxdata
/var/folders/vm/650ssqs08xl63r006s7ds01h0000gp/T//ccCcD5y7.s:5639   .bss:00000001 do_output
/var/folders/vm/650ssqs08xl63r006s7ds01h0000gp/T//ccCcD5y7.s:5645   .bss:00000002 liniencounter
/var/folders/vm/650ssqs08xl63r006s7ds01h0000gp/T//ccCcD5y7.s:5651   .data:0000001c timer0startwert
/var/folders/vm/650ssqs08xl63r006s7ds01h0000gp/T//ccCcD5y7.s:5664   .bss:00000004 status
/var/folders/vm/650ssqs08xl63r006s7ds01h0000gp/T//ccCcD5y7.s:5841   .progmem.data:00000039 device_descriptor
/var/folders/vm/650ssqs08xl63r006s7ds01h0000gp/T//ccCcD5y7.s:5862   .progmem.data:0000004b config1_descriptor
/var/folders/vm/650ssqs08xl63r006s7ds01h0000gp/T//ccCcD5y7.s:5906   .progmem.data:00000074 rawhid_hid_report_desc
/var/folders/vm/650ssqs08xl63r006s7ds01h0000gp/T//ccCcD5y7.s:5937   .progmem.data:00000090 string0
/var/folders/vm/650ssqs08xl63r006s7ds01h0000gp/T//ccCcD5y7.s:5943   .progmem.data:00000094 string1
/var/folders/vm/650ssqs08xl63r006s7ds01h0000gp/T//ccCcD5y7.s:5966   .progmem.data:000000b8 string2
                            *COM*:00000003 ADCWert16
                            *COM*:00000001 buffer_adr

UNDEFINED SYMBOLS
__udivmodqi4
__udivmodhi4
__udivmodsi4
__divmodsi4
__divmodhi4
__do_copy_data
__do_clear_bss
