   1               		.file	"TWI_Slave.c"
   2               	__SREG__ = 0x3f
   3               	__SP_H__ = 0x3e
   4               	__SP_L__ = 0x3d
   5               	__CCP__ = 0x34
   6               	__tmp_reg__ = 0
   7               	__zero_reg__ = 1
  15               	.Ltext0:
  16               		.section	.text.usb_wait_in_ready,"ax",@progbits
  18               	usb_wait_in_ready:
  19               	.LFB46:
  20               	.LSM0:
  21               	/* prologue: function */
  22               	/* frame size = 0 */
  23               	/* stack size = 0 */
  24               	.L__stack_usage = 0
  25               	.L2:
  26               	.LSM1:
  27 0000 8091 E800 		lds r24,232
  28 0004 80FF      		sbrs r24,0
  29 0006 00C0      		rjmp .L2
  30               	/* epilogue start */
  31               	.LSM2:
  32 0008 0895      		ret
  33               	.LFE46:
  35               		.section	.text.lcddelay_ms,"ax",@progbits
  36               	.global	lcddelay_ms
  38               	lcddelay_ms:
  39               	.LFB7:
  40               	.LSM3:
  41               	.LVL0:
  42               	/* prologue: function */
  43               	/* frame size = 0 */
  44               	/* stack size = 0 */
  45               	.L__stack_usage = 0
  46               	.LSM4:
  47 0000 00C0      		rjmp .L5
  48               	.L6:
  49               	.LVL1:
  50               	.LBB65:
  51               	.LBB66:
  52               	.LSM5:
  53 0002 EFEF      		 ldi r30,lo8(3839)
  54 0004 FEE0      	    ldi r31,hi8(3839)
  55 0006 3197      	    1:sbiw r30,1
  56 0008 01F4      	    brne 1b
  57 000a 00C0      		rjmp .
  58 000c 0000      		nop
  59               	.LBE66:
  60               	.LBE65:
  61               	.LSM6:
  62 000e 0197      		sbiw r24,1
  63               	.LVL2:
  64               	.L5:
  65               	.LSM7:
  66 0010 0097      		sbiw r24,0
  67 0012 01F4      		brne .L6
  68               	/* epilogue start */
  69               	.LSM8:
  70 0014 0895      		ret
  71               	.LFE7:
  73               		.section	.text.lcd_backlight,"ax",@progbits
  74               	.global	lcd_backlight
  76               	lcd_backlight:
  77               	.LFB8:
  78               	.LSM9:
  79               	.LVL3:
  80               	/* prologue: function */
  81               	/* frame size = 0 */
  82               	/* stack size = 0 */
  83               	.L__stack_usage = 0
  84               	.LSM10:
  85 0000 0097      		sbiw r24,0
  86 0002 01F0      		breq .L8
  87               	.LSM11:
  88 0004 8F9A      		sbi 49-32,7
  89 0006 0895      		ret
  90               	.L8:
  91               	.LSM12:
  92 0008 8F98      		cbi 49-32,7
  93 000a 0895      		ret
  94               	.LFE8:
  96               		.section	.text.lcd_load_byte,"ax",@progbits
  97               	.global	lcd_load_byte
  99               	lcd_load_byte:
 100               	.LFB10:
 101               	.LSM13:
 102               	.LVL4:
 103               	/* prologue: function */
 104               	/* frame size = 0 */
 105               	/* stack size = 0 */
 106               	.L__stack_usage = 0
 107               	.LSM14:
 108 0000 8F98      		cbi 49-32,7
 109               	.LVL5:
 110 0002 28E0      		ldi r18,lo8(8)
 111 0004 30E0      		ldi r19,hi8(8)
 112               	.LVL6:
 113               	.L14:
 114               	.LSM15:
 115 0006 87FF      		sbrs r24,7
 116 0008 00C0      		rjmp .L11
 117               	.LSM16:
 118 000a 8D9A      		sbi 49-32,5
 119 000c 00C0      		rjmp .L12
 120               	.L11:
 121               	.LSM17:
 122 000e 8D98      		cbi 49-32,5
 123               	.L12:
 124               	.LVL7:
 125               	.LSM18:
 126 0010 8F9A      		sbi 49-32,7
 127               	.LVL8:
 128               	.LBB67:
 129               	.LBB68:
 130               	.LSM19:
 131 0012 9AE6      		 ldi r25,lo8(106)
 132 0014 9A95      	    1:dec r25
 133 0016 01F4      	    brne 1b
 134 0018 00C0      		rjmp .
 135               	.LBE68:
 136               	.LBE67:
 137               	.LSM20:
 138 001a 8F98      		cbi 49-32,7
 139 001c 2150      		subi r18,lo8(-(-1))
 140 001e 3040      		sbci r19,hi8(-(-1))
 141               	.LSM21:
 142 0020 01F0      		breq .L10
 143               	.LSM22:
 144 0022 880F      		lsl r24
 145               	.LVL9:
 146 0024 00C0      		rjmp .L14
 147               	.LVL10:
 148               	.L10:
 149 0026 0895      		ret
 150               	.LFE10:
 152               		.section	.text.lcd_strobe_E,"ax",@progbits
 153               	.global	lcd_strobe_E
 155               	lcd_strobe_E:
 156               	.LFB19:
 157               	.LSM23:
 158               	/* prologue: function */
 159               	/* frame size = 0 */
 160               	/* stack size = 0 */
 161               	.L__stack_usage = 0
 162               	.LSM24:
 163 0000 8E9A      		sbi 49-32,6
 164               	.LVL11:
 165               	.LBB69:
 166               	.LBB70:
 167               	.LSM25:
 168 0002 87E0      		 ldi r24,lo8(1799)
 169 0004 97E0      	    ldi r25,hi8(1799)
 170 0006 0197      	    1:sbiw r24,1
 171 0008 01F4      	    brne 1b
 172 000a 00C0      		rjmp .
 173 000c 0000      		nop
 174               	.LBE70:
 175               	.LBE69:
 176               	.LSM26:
 177 000e 8E98      		cbi 49-32,6
 178               	/* epilogue start */
 179               	.LSM27:
 180 0010 0895      		ret
 181               	.LFE19:
 183               		.section	.text.lcd_send_char,"ax",@progbits
 184               	.global	lcd_send_char
 186               	lcd_send_char:
 187               	.LFB12:
 188               	.LSM28:
 189               	/* prologue: function */
 190               	/* frame size = 0 */
 191               	/* stack size = 0 */
 192               	.L__stack_usage = 0
 193               	.LSM29:
 194 0000 8D9A      		sbi 49-32,5
 195               	.LSM30:
 196 0002 0E94 0000 		call lcd_strobe_E
 197               	.LVL12:
 198               	.LBB71:
 199               	.LBB72:
 200               	.LSM31:
 201 0006 87EC      		 ldi r24,lo8(199)
 202 0008 90E0      	    ldi r25,hi8(199)
 203 000a 0197      	    1:sbiw r24,1
 204 000c 01F4      	    brne 1b
 205 000e 00C0      		rjmp .
 206 0010 0000      		nop
 207               	/* epilogue start */
 208               	.LBE72:
 209               	.LBE71:
 210               	.LSM32:
 211 0012 0895      		ret
 212               	.LFE12:
 214               		.section	.text.lcd_putc,"ax",@progbits
 215               	.global	lcd_putc
 217               	lcd_putc:
 218               	.LFB13:
 219               	.LSM33:
 220               	.LVL13:
 221               	/* prologue: function */
 222               	/* frame size = 0 */
 223               	/* stack size = 0 */
 224               	.L__stack_usage = 0
 225               	.LSM34:
 226 0000 0E94 0000 		call lcd_load_byte
 227               	.LVL14:
 228               	.LSM35:
 229 0004 0E94 0000 		call lcd_send_char
 230               	/* epilogue start */
 231               	.LSM36:
 232 0008 0895      		ret
 233               	.LFE13:
 235               		.section	.text.lcd_puts,"ax",@progbits
 236               	.global	lcd_puts
 238               	lcd_puts:
 239               	.LFB18:
 240               	.LSM37:
 241               	.LVL15:
 242 0000 CF93      		push r28
 243 0002 DF93      		push r29
 244               	/* prologue: function */
 245               	/* frame size = 0 */
 246               	/* stack size = 2 */
 247               	.L__stack_usage = 2
 248 0004 EC01      		movw r28,r24
 249               	.LSM38:
 250 0006 00C0      		rjmp .L19
 251               	.LVL16:
 252               	.L20:
 253               	.LSM39:
 254 0008 0E94 0000 		call lcd_putc
 255               	.LVL17:
 256               	.L19:
 257               	.LSM40:
 258 000c 8991      		ld r24,Y+
 259               	.LVL18:
 260 000e 8823      		tst r24
 261 0010 01F4      		brne .L20
 262               	/* epilogue start */
 263               	.LSM41:
 264 0012 DF91      		pop r29
 265 0014 CF91      		pop r28
 266               	.LVL19:
 267 0016 0895      		ret
 268               	.LFE18:
 270               		.section	.text.lcd_putint1,"ax",@progbits
 271               	.global	lcd_putint1
 273               	lcd_putint1:
 274               	.LFB17:
 275               	.LSM42:
 276               	.LVL20:
 277 0000 DF93      		push r29
 278 0002 CF93      		push r28
 279 0004 00D0      		rcall .
 280 0006 CDB7      		in r28,__SP_L__
 281 0008 DEB7      		in r29,__SP_H__
 282               	/* prologue: function */
 283               	/* frame size = 2 */
 284               	/* stack size = 4 */
 285               	.L__stack_usage = 4
 286               	.LVL21:
 287               	.LSM43:
 288 000a 1A82      		std Y+2,__zero_reg__
 289               	.LSM44:
 290 000c 6AE0      		ldi r22,lo8(10)
 291 000e 0E94 0000 		call __udivmodqi4
 292               	.LVL22:
 293               	.LSM45:
 294 0012 905D      		subi r25,lo8(-(48))
 295               	.LVL23:
 296 0014 9983      		std Y+1,r25
 297               	.LSM46:
 298 0016 CE01      		movw r24,r28
 299 0018 0196      		adiw r24,1
 300 001a 0E94 0000 		call lcd_puts
 301               	.LVL24:
 302               	/* epilogue start */
 303               	.LSM47:
 304 001e 0F90      		pop __tmp_reg__
 305 0020 0F90      		pop __tmp_reg__
 306 0022 CF91      		pop r28
 307 0024 DF91      		pop r29
 308 0026 0895      		ret
 309               	.LFE17:
 311               		.section	.text.lcd_putint2,"ax",@progbits
 312               	.global	lcd_putint2
 314               	lcd_putint2:
 315               	.LFB16:
 316               	.LSM48:
 317               	.LVL25:
 318 0000 DF93      		push r29
 319 0002 CF93      		push r28
 320 0004 00D0      		rcall .
 321 0006 0F92      		push __tmp_reg__
 322 0008 CDB7      		in r28,__SP_L__
 323 000a DEB7      		in r29,__SP_H__
 324               	/* prologue: function */
 325               	/* frame size = 3 */
 326               	/* stack size = 5 */
 327               	.L__stack_usage = 5
 328               	.LSM49:
 329 000c 64E6      		ldi r22,lo8(100)
 330 000e 0E94 0000 		call __udivmodqi4
 331               	.LVL26:
 332 0012 892F      		mov r24,r25
 333               	.LVL27:
 334               	.LSM50:
 335 0014 1B82      		std Y+3,__zero_reg__
 336               	.LVL28:
 337               	.LSM51:
 338 0016 2AE0      		ldi r18,lo8(10)
 339 0018 622F      		mov r22,r18
 340 001a 0E94 0000 		call __udivmodqi4
 341               	.LVL29:
 342 001e 905D      		subi r25,lo8(-(48))
 343 0020 9A83      		std Y+2,r25
 344               	.LVL30:
 345 0022 0E94 0000 		call __udivmodqi4
 346 0026 905D      		subi r25,lo8(-(48))
 347 0028 9983      		std Y+1,r25
 348               	.LVL31:
 349               	.LSM52:
 350 002a CE01      		movw r24,r28
 351 002c 0196      		adiw r24,1
 352 002e 0E94 0000 		call lcd_puts
 353               	/* epilogue start */
 354               	.LSM53:
 355 0032 0F90      		pop __tmp_reg__
 356 0034 0F90      		pop __tmp_reg__
 357 0036 0F90      		pop __tmp_reg__
 358 0038 CF91      		pop r28
 359 003a DF91      		pop r29
 360 003c 0895      		ret
 361               	.LFE16:
 363               		.section	.text.lcd_putint16,"ax",@progbits
 364               	.global	lcd_putint16
 366               	lcd_putint16:
 367               	.LFB15:
 368               	.LSM54:
 369               	.LVL32:
 370 0000 0F93      		push r16
 371 0002 1F93      		push r17
 372 0004 DF93      		push r29
 373 0006 CF93      		push r28
 374 0008 CDB7      		in r28,__SP_L__
 375 000a DEB7      		in r29,__SP_H__
 376 000c 2897      		sbiw r28,8
 377 000e 0FB6      		in __tmp_reg__,__SREG__
 378 0010 F894      		cli
 379 0012 DEBF      		out __SP_H__,r29
 380 0014 0FBE      		out __SREG__,__tmp_reg__
 381 0016 CDBF      		out __SP_L__,r28
 382               	/* prologue: function */
 383               	/* frame size = 8 */
 384               	/* stack size = 12 */
 385               	.L__stack_usage = 12
 386               	.LSM55:
 387 0018 1886      		std Y+8,__zero_reg__
 388               	.LVL33:
 389 001a FE01      		movw r30,r28
 390 001c 3896      		adiw r30,8
 391               	.LSM56:
 392 001e 8E01      		movw r16,r28
 393 0020 0F5F      		subi r16,lo8(-(1))
 394 0022 1F4F      		sbci r17,hi8(-(1))
 395               	.LSM57:
 396 0024 2AE0      		ldi r18,lo8(10)
 397 0026 30E0      		ldi r19,hi8(10)
 398               	.LVL34:
 399               	.L24:
 400               	.LSM58:
 401 0028 B901      		movw r22,r18
 402 002a 0E94 0000 		call __udivmodhi4
 403 002e 805D      		subi r24,lo8(-(48))
 404 0030 8293      		st -Z,r24
 405               	.LSM59:
 406 0032 CB01      		movw r24,r22
 407               	.LVL35:
 408               	.LSM60:
 409 0034 E017      		cp r30,r16
 410 0036 F107      		cpc r31,r17
 411 0038 01F4      		brne .L24
 412               	.LSM61:
 413 003a CE01      		movw r24,r28
 414               	.LVL36:
 415 003c 0196      		adiw r24,1
 416 003e 0E94 0000 		call lcd_puts
 417               	/* epilogue start */
 418               	.LSM62:
 419 0042 2896      		adiw r28,8
 420 0044 0FB6      		in __tmp_reg__,__SREG__
 421 0046 F894      		cli
 422 0048 DEBF      		out __SP_H__,r29
 423 004a 0FBE      		out __SREG__,__tmp_reg__
 424 004c CDBF      		out __SP_L__,r28
 425 004e CF91      		pop r28
 426 0050 DF91      		pop r29
 427 0052 1F91      		pop r17
 428 0054 0F91      		pop r16
 429 0056 0895      		ret
 430               	.LFE15:
 432               		.section	.text.lcd_putint,"ax",@progbits
 433               	.global	lcd_putint
 435               	lcd_putint:
 436               	.LFB14:
 437               	.LSM63:
 438               	.LVL37:
 439 0000 DF93      		push r29
 440 0002 CF93      		push r28
 441 0004 00D0      		rcall .
 442 0006 00D0      		rcall .
 443 0008 CDB7      		in r28,__SP_L__
 444 000a DEB7      		in r29,__SP_H__
 445               	/* prologue: function */
 446               	/* frame size = 4 */
 447               	/* stack size = 6 */
 448               	.L__stack_usage = 6
 449               	.LSM64:
 450 000c 1C82      		std Y+4,__zero_reg__
 451               	.LVL38:
 452               	.LSM65:
 453 000e 2AE0      		ldi r18,lo8(10)
 454 0010 622F      		mov r22,r18
 455 0012 0E94 0000 		call __udivmodqi4
 456               	.LVL39:
 457 0016 905D      		subi r25,lo8(-(48))
 458 0018 9B83      		std Y+3,r25
 459               	.LVL40:
 460 001a 0E94 0000 		call __udivmodqi4
 461               	.LVL41:
 462 001e 905D      		subi r25,lo8(-(48))
 463 0020 9A83      		std Y+2,r25
 464               	.LVL42:
 465 0022 0E94 0000 		call __udivmodqi4
 466 0026 905D      		subi r25,lo8(-(48))
 467 0028 9983      		std Y+1,r25
 468               	.LVL43:
 469               	.LSM66:
 470 002a CE01      		movw r24,r28
 471 002c 0196      		adiw r24,1
 472 002e 0E94 0000 		call lcd_puts
 473               	/* epilogue start */
 474               	.LSM67:
 475 0032 0F90      		pop __tmp_reg__
 476 0034 0F90      		pop __tmp_reg__
 477 0036 0F90      		pop __tmp_reg__
 478 0038 0F90      		pop __tmp_reg__
 479 003a CF91      		pop r28
 480 003c DF91      		pop r29
 481 003e 0895      		ret
 482               	.LFE14:
 484               		.section	.text.lcd_send_cmd,"ax",@progbits
 485               	.global	lcd_send_cmd
 487               	lcd_send_cmd:
 488               	.LFB11:
 489               	.LSM68:
 490               	/* prologue: function */
 491               	/* frame size = 0 */
 492               	/* stack size = 0 */
 493               	.L__stack_usage = 0
 494               	.LSM69:
 495 0000 8D98      		cbi 49-32,5
 496               	.LSM70:
 497 0002 0E94 0000 		call lcd_strobe_E
 498               	.LVL44:
 499               	.LBB73:
 500               	.LBB74:
 501               	.LSM71:
 502 0006 87EC      		 ldi r24,lo8(199)
 503 0008 90E0      	    ldi r25,hi8(199)
 504 000a 0197      	    1:sbiw r24,1
 505 000c 01F4      	    brne 1b
 506 000e 00C0      		rjmp .
 507 0010 0000      		nop
 508               	/* epilogue start */
 509               	.LBE74:
 510               	.LBE73:
 511               	.LSM72:
 512 0012 0895      		ret
 513               	.LFE11:
 515               		.section	.text.lcd_initialize,"ax",@progbits
 516               	.global	lcd_initialize
 518               	lcd_initialize:
 519               	.LFB9:
 520               	.LSM73:
 521               	.LVL45:
 522 0000 1F93      		push r17
 523 0002 DF93      		push r29
 524 0004 CF93      		push r28
 525 0006 00D0      		rcall .
 526 0008 CDB7      		in r28,__SP_L__
 527 000a DEB7      		in r29,__SP_H__
 528               	/* prologue: function */
 529               	/* frame size = 2 */
 530               	/* stack size = 5 */
 531               	.L__stack_usage = 5
 532 000c 182F      		mov r17,r24
 533               	.LVL46:
 534               	.LBB75:
 535               	.LBB76:
 536               	.LSM74:
 537 000e 8FEF      		 ldi r24,lo8(95999)
 538 0010 96E7      	    ldi r25,hi8(95999)
 539 0012 A1E0      	    ldi r26,hlo8(95999)
 540 0014 8150      	    1:subi r24,1
 541 0016 9040      	    sbci r25,0
 542 0018 A040      	    sbci r26,0
 543 001a 01F4      	    brne 1b
 544               	.LVL47:
 545 001c 00C0      		rjmp .
 546 001e 0000      		nop
 547               	.LBE76:
 548               	.LBE75:
 549               	.LSM75:
 550 0020 80E3      		ldi r24,lo8(48)
 551 0022 4A83      		std Y+2,r20
 552 0024 6983      		std Y+1,r22
 553 0026 0E94 0000 		call lcd_load_byte
 554               	.LVL48:
 555               	.LSM76:
 556 002a 0E94 0000 		call lcd_send_cmd
 557               	.LVL49:
 558               	.LBB77:
 559               	.LBB78:
 560               	.LSM77:
 561 002e AFE3      		 ldi r26,lo8(-25537)
 562 0030 BCE9      	    ldi r27,hi8(-25537)
 563 0032 1197      	    1:sbiw r26,1
 564 0034 01F4      	    brne 1b
 565 0036 00C0      		rjmp .
 566 0038 0000      		nop
 567               	.LBE78:
 568               	.LBE77:
 569               	.LSM78:
 570 003a 80E3      		ldi r24,lo8(48)
 571 003c 0E94 0000 		call lcd_load_byte
 572               	.LSM79:
 573 0040 0E94 0000 		call lcd_send_cmd
 574               	.LVL50:
 575               	.LBB79:
 576               	.LBB80:
 577               	.LSM80:
 578 0044 BAE6      		 ldi r27,lo8(106)
 579 0046 BA95      	    1:dec r27
 580 0048 01F4      	    brne 1b
 581 004a 00C0      		rjmp .
 582               	.LBE80:
 583               	.LBE79:
 584               	.LSM81:
 585 004c 80E3      		ldi r24,lo8(48)
 586 004e 0E94 0000 		call lcd_load_byte
 587               	.LSM82:
 588 0052 0E94 0000 		call lcd_send_cmd
 589               	.LVL51:
 590               	.LBB81:
 591               	.LBB82:
 592               	.LSM83:
 593 0056 EFE7      		 ldi r30,lo8(639)
 594 0058 F2E0      	    ldi r31,hi8(639)
 595 005a 3197      	    1:sbiw r30,1
 596 005c 01F4      	    brne 1b
 597 005e 00C0      		rjmp .
 598 0060 0000      		nop
 599               	.LBE82:
 600               	.LBE81:
 601               	.LSM84:
 602 0062 812F      		mov r24,r17
 603 0064 0E94 0000 		call lcd_load_byte
 604               	.LSM85:
 605 0068 0E94 0000 		call lcd_send_cmd
 606               	.LSM86:
 607 006c 88E0      		ldi r24,lo8(8)
 608 006e 0E94 0000 		call lcd_load_byte
 609               	.LSM87:
 610 0072 0E94 0000 		call lcd_send_cmd
 611               	.LSM88:
 612 0076 81E0      		ldi r24,lo8(1)
 613 0078 0E94 0000 		call lcd_load_byte
 614               	.LSM89:
 615 007c 0E94 0000 		call lcd_send_cmd
 616               	.LVL52:
 617               	.LBB83:
 618               	.LBB84:
 619               	.LSM90:
 620 0080 8FE7      		 ldi r24,lo8(15999)
 621 0082 9EE3      	    ldi r25,hi8(15999)
 622 0084 0197      	    1:sbiw r24,1
 623 0086 01F4      	    brne 1b
 624 0088 00C0      		rjmp .
 625 008a 0000      		nop
 626               	.LBE84:
 627               	.LBE83:
 628               	.LSM91:
 629 008c 6981      		ldd r22,Y+1
 630 008e 862F      		mov r24,r22
 631 0090 0E94 0000 		call lcd_load_byte
 632               	.LSM92:
 633 0094 0E94 0000 		call lcd_send_cmd
 634               	.LVL53:
 635               	.LBB85:
 636               	.LBB86:
 637               	.LSM93:
 638 0098 AFE7      		 ldi r26,lo8(15999)
 639 009a BEE3      	    ldi r27,hi8(15999)
 640 009c 1197      	    1:sbiw r26,1
 641 009e 01F4      	    brne 1b
 642 00a0 00C0      		rjmp .
 643 00a2 0000      		nop
 644               	.LBE86:
 645               	.LBE85:
 646               	.LSM94:
 647 00a4 4A81      		ldd r20,Y+2
 648 00a6 842F      		mov r24,r20
 649 00a8 0E94 0000 		call lcd_load_byte
 650               	.LSM95:
 651 00ac 0E94 0000 		call lcd_send_cmd
 652               	.LVL54:
 653               	.LBB87:
 654               	.LBB88:
 655               	.LSM96:
 656 00b0 8FEF      		 ldi r24,lo8(127999)
 657 00b2 93EF      	    ldi r25,hi8(127999)
 658 00b4 A1E0      	    ldi r26,hlo8(127999)
 659 00b6 8150      	    1:subi r24,1
 660 00b8 9040      	    sbci r25,0
 661 00ba A040      	    sbci r26,0
 662 00bc 01F4      	    brne 1b
 663 00be 00C0      		rjmp .
 664 00c0 0000      		nop
 665               	/* epilogue start */
 666               	.LBE88:
 667               	.LBE87:
 668               	.LSM97:
 669 00c2 0F90      		pop __tmp_reg__
 670 00c4 0F90      		pop __tmp_reg__
 671 00c6 CF91      		pop r28
 672 00c8 DF91      		pop r29
 673 00ca 1F91      		pop r17
 674               	.LVL55:
 675 00cc 0895      		ret
 676               	.LFE9:
 678               		.section	.text.lcd_cursor_home,"ax",@progbits
 679               	.global	lcd_cursor_home
 681               	lcd_cursor_home:
 682               	.LFB20:
 683               	.LSM98:
 684               	/* prologue: function */
 685               	/* frame size = 0 */
 686               	/* stack size = 0 */
 687               	.L__stack_usage = 0
 688               	.LSM99:
 689 0000 82E0      		ldi r24,lo8(2)
 690 0002 0E94 0000 		call lcd_load_byte
 691               	.LSM100:
 692 0006 0E94 0000 		call lcd_send_cmd
 693               	/* epilogue start */
 694               	.LSM101:
 695 000a 0895      		ret
 696               	.LFE20:
 698               		.section	.text.lcd_move_cursor,"ax",@progbits
 699               	.global	lcd_move_cursor
 701               	lcd_move_cursor:
 702               	.LFB21:
 703               	.LSM102:
 704               	.LVL56:
 705               	/* prologue: function */
 706               	/* frame size = 0 */
 707               	/* stack size = 0 */
 708               	.L__stack_usage = 0
 709               	.LSM103:
 710 0000 860F      		add r24,r22
 711               	.LVL57:
 712 0002 0E94 0000 		call lcd_load_byte
 713               	.LVL58:
 714               	.LSM104:
 715 0006 0E94 0000 		call lcd_send_cmd
 716               	/* epilogue start */
 717               	.LSM105:
 718 000a 0895      		ret
 719               	.LFE21:
 721               		.section	.text.lcd_inc_cursor,"ax",@progbits
 722               	.global	lcd_inc_cursor
 724               	lcd_inc_cursor:
 725               	.LFB22:
 726               	.LSM106:
 727               	.LVL59:
 728 0000 CF93      		push r28
 729               	/* prologue: function */
 730               	/* frame size = 0 */
 731               	/* stack size = 1 */
 732               	.L__stack_usage = 1
 733 0002 C82F      		mov r28,r24
 734               	.LSM107:
 735 0004 00C0      		rjmp .L32
 736               	.LVL60:
 737               	.L33:
 738               	.LSM108:
 739 0006 84E1      		ldi r24,lo8(20)
 740 0008 0E94 0000 		call lcd_load_byte
 741               	.LSM109:
 742 000c 0E94 0000 		call lcd_send_cmd
 743 0010 C150      		subi r28,lo8(-(-1))
 744               	.L32:
 745               	.LSM110:
 746 0012 CC23      		tst r28
 747 0014 01F4      		brne .L33
 748               	/* epilogue start */
 749               	.LSM111:
 750 0016 CF91      		pop r28
 751 0018 0895      		ret
 752               	.LFE22:
 754               		.section	.text.lcd_dec_cursor,"ax",@progbits
 755               	.global	lcd_dec_cursor
 757               	lcd_dec_cursor:
 758               	.LFB23:
 759               	.LSM112:
 760               	.LVL61:
 761 0000 CF93      		push r28
 762               	/* prologue: function */
 763               	/* frame size = 0 */
 764               	/* stack size = 1 */
 765               	.L__stack_usage = 1
 766 0002 C82F      		mov r28,r24
 767               	.LSM113:
 768 0004 00C0      		rjmp .L35
 769               	.LVL62:
 770               	.L36:
 771               	.LSM114:
 772 0006 80E1      		ldi r24,lo8(16)
 773 0008 0E94 0000 		call lcd_load_byte
 774               	.LSM115:
 775 000c 0E94 0000 		call lcd_send_cmd
 776 0010 C150      		subi r28,lo8(-(-1))
 777               	.L35:
 778               	.LSM116:
 779 0012 CC23      		tst r28
 780 0014 01F4      		brne .L36
 781               	/* epilogue start */
 782               	.LSM117:
 783 0016 CF91      		pop r28
 784 0018 0895      		ret
 785               	.LFE23:
 787               		.section	.text.lcd_gotoxy,"ax",@progbits
 788               	.global	lcd_gotoxy
 790               	lcd_gotoxy:
 791               	.LFB24:
 792               	.LSM118:
 793               	.LVL63:
 794               	/* prologue: function */
 795               	/* frame size = 0 */
 796               	/* stack size = 0 */
 797               	.L__stack_usage = 0
 798               	.LSM119:
 799 0000 6623      		tst r22
 800 0002 01F4      		brne .L38
 801               	.LSM120:
 802 0004 8058      		subi r24,lo8(-(-128))
 803               	.LVL64:
 804 0006 00C0      		rjmp .L40
 805               	.LVL65:
 806               	.L38:
 807               	.LSM121:
 808 0008 8054      		subi r24,lo8(-(-64))
 809               	.LVL66:
 810               	.L40:
 811 000a 0E94 0000 		call lcd_load_byte
 812               	.LVL67:
 813               	.LSM122:
 814 000e 0E94 0000 		call lcd_send_cmd
 815 0012 0895      		ret
 816               	.LFE24:
 818               		.section	.text.lcd_cls,"ax",@progbits
 819               	.global	lcd_cls
 821               	lcd_cls:
 822               	.LFB25:
 823               	.LSM123:
 824               	/* prologue: function */
 825               	/* frame size = 0 */
 826               	/* stack size = 0 */
 827               	.L__stack_usage = 0
 828               	.LSM124:
 829 0000 81E0      		ldi r24,lo8(1)
 830 0002 0E94 0000 		call lcd_load_byte
 831               	.LSM125:
 832 0006 0E94 0000 		call lcd_send_cmd
 833               	.LSM126:
 834 000a 82E0      		ldi r24,lo8(2)
 835 000c 90E0      		ldi r25,hi8(2)
 836 000e 0E94 0000 		call lcddelay_ms
 837               	.LSM127:
 838 0012 82E0      		ldi r24,lo8(2)
 839 0014 0E94 0000 		call lcd_load_byte
 840               	.LSM128:
 841 0018 0E94 0000 		call lcd_send_cmd
 842               	.LSM129:
 843 001c 82E0      		ldi r24,lo8(2)
 844 001e 90E0      		ldi r25,hi8(2)
 845 0020 0E94 0000 		call lcddelay_ms
 846               	/* epilogue start */
 847               	.LSM130:
 848 0024 0895      		ret
 849               	.LFE25:
 851               		.section	.text.lcd_clr_line,"ax",@progbits
 852               	.global	lcd_clr_line
 854               	lcd_clr_line:
 855               	.LFB26:
 856               	.LSM131:
 857               	.LVL68:
 858 0000 CF93      		push r28
 859 0002 DF93      		push r29
 860               	/* prologue: function */
 861               	/* frame size = 0 */
 862               	/* stack size = 2 */
 863               	.L__stack_usage = 2
 864 0004 C82F      		mov r28,r24
 865               	.LSM132:
 866 0006 80E0      		ldi r24,lo8(0)
 867               	.LVL69:
 868 0008 6C2F      		mov r22,r28
 869 000a 0E94 0000 		call lcd_gotoxy
 870               	.LVL70:
 871 000e D4E1      		ldi r29,lo8(20)
 872               	.LVL71:
 873               	.L43:
 874               	.LSM133:
 875 0010 80E2      		ldi r24,lo8(32)
 876 0012 0E94 0000 		call lcd_putc
 877 0016 D150      		subi r29,lo8(-(-1))
 878               	.LSM134:
 879 0018 01F4      		brne .L43
 880               	.LSM135:
 881 001a 80E0      		ldi r24,lo8(0)
 882 001c 6C2F      		mov r22,r28
 883 001e 0E94 0000 		call lcd_gotoxy
 884               	.LSM136:
 885 0022 82E0      		ldi r24,lo8(2)
 886 0024 90E0      		ldi r25,hi8(2)
 887 0026 0E94 0000 		call lcddelay_ms
 888               	/* epilogue start */
 889               	.LSM137:
 890 002a DF91      		pop r29
 891 002c CF91      		pop r28
 892               	.LVL72:
 893 002e 0895      		ret
 894               	.LFE26:
 896               		.section	.text.r_uitoa,"ax",@progbits
 897               	.global	r_uitoa
 899               	r_uitoa:
 900               	.LFB27:
 901               	.LSM138:
 902               	.LVL73:
 903 0000 CF92      		push r12
 904 0002 DF92      		push r13
 905 0004 EF92      		push r14
 906 0006 FF92      		push r15
 907 0008 1F93      		push r17
 908 000a CF93      		push r28
 909 000c DF93      		push r29
 910               	/* prologue: function */
 911               	/* frame size = 0 */
 912               	/* stack size = 7 */
 913               	.L__stack_usage = 7
 914 000e EA01      		movw r28,r20
 915               	.LSM139:
 916 0010 1A86      		std Y+10,__zero_reg__
 917               	.LVL74:
 918 0012 2A96      		adiw r28,10
 919 0014 1AE0      		ldi r17,lo8(10)
 920               	.LSM140:
 921 0016 2AE0      		ldi r18,lo8(10)
 922 0018 C22E      		mov r12,r18
 923 001a D12C      		mov r13,__zero_reg__
 924 001c E12C      		mov r14,__zero_reg__
 925 001e F12C      		mov r15,__zero_reg__
 926               	.LVL75:
 927               	.L46:
 928               	.LSM141:
 929 0020 A701      		movw r20,r14
 930 0022 9601      		movw r18,r12
 931 0024 0E94 0000 		call __udivmodsi4
 932 0028 605D      		subi r22,lo8(-(48))
 933 002a 6A93      		st -Y,r22
 934               	.LSM142:
 935 002c B901      		movw r22,r18
 936 002e CA01      		movw r24,r20
 937               	.LVL76:
 938 0030 1150      		subi r17,lo8(-(-1))
 939               	.LSM143:
 940 0032 01F4      		brne .L46
 941               	/* epilogue start */
 942               	.LSM144:
 943 0034 DF91      		pop r29
 944 0036 CF91      		pop r28
 945 0038 1F91      		pop r17
 946 003a FF90      		pop r15
 947 003c EF90      		pop r14
 948 003e DF90      		pop r13
 949 0040 CF90      		pop r12
 950 0042 0895      		ret
 951               	.LFE27:
 953               		.section	.text.r_itoa,"ax",@progbits
 954               	.global	r_itoa
 956               	r_itoa:
 957               	.LFB28:
 958               	.LSM145:
 959               	.LVL77:
 960 0000 CF92      		push r12
 961 0002 DF92      		push r13
 962 0004 EF92      		push r14
 963 0006 FF92      		push r15
 964 0008 1F93      		push r17
 965 000a CF93      		push r28
 966 000c DF93      		push r29
 967               	/* prologue: function */
 968               	/* frame size = 0 */
 969               	/* stack size = 7 */
 970               	.L__stack_usage = 7
 971 000e FA01      		movw r30,r20
 972               	.LSM146:
 973 0010 EA01      		movw r28,r20
 974 0012 2B96      		adiw r28,11
 975 0014 1386      		std Z+11,__zero_reg__
 976               	.LSM147:
 977 0016 97FF      		sbrs r25,7
 978 0018 00C0      		rjmp .L49
 979               	.LSM148:
 980 001a 2DE2      		ldi r18,lo8(45)
 981 001c 2083      		st Z,r18
 982               	.LSM149:
 983 001e 9095      		com r25
 984 0020 8095      		com r24
 985 0022 7095      		com r23
 986 0024 6195      		neg r22
 987 0026 7F4F      		sbci r23,lo8(-1)
 988 0028 8F4F      		sbci r24,lo8(-1)
 989 002a 9F4F      		sbci r25,lo8(-1)
 990               	.LVL78:
 991 002c 00C0      		rjmp .L50
 992               	.L49:
 993               	.LSM150:
 994 002e 20E2      		ldi r18,lo8(32)
 995 0030 2083      		st Z,r18
 996               	.L50:
 997               	.LVL79:
 998               	.LSM151:
 999 0032 1AE0      		ldi r17,lo8(10)
 1000               	.LSM152:
 1001 0034 3AE0      		ldi r19,lo8(10)
 1002 0036 C32E      		mov r12,r19
 1003 0038 D12C      		mov r13,__zero_reg__
 1004 003a E12C      		mov r14,__zero_reg__
 1005 003c F12C      		mov r15,__zero_reg__
 1006               	.LVL80:
 1007               	.L51:
 1008               	.LSM153:
 1009 003e A701      		movw r20,r14
 1010 0040 9601      		movw r18,r12
 1011 0042 0E94 0000 		call __divmodsi4
 1012               	.LVL81:
 1013 0046 605D      		subi r22,lo8(-(48))
 1014 0048 6A93      		st -Y,r22
 1015               	.LSM154:
 1016 004a B901      		movw r22,r18
 1017 004c CA01      		movw r24,r20
 1018               	.LVL82:
 1019               	.LSM155:
 1020 004e 1150      		subi r17,lo8(-(-1))
 1021               	.LVL83:
 1022 0050 01F4      		brne .L51
 1023               	/* epilogue start */
 1024               	.LSM156:
 1025 0052 DF91      		pop r29
 1026 0054 CF91      		pop r28
 1027 0056 1F91      		pop r17
 1028               	.LVL84:
 1029 0058 FF90      		pop r15
 1030 005a EF90      		pop r14
 1031 005c DF90      		pop r13
 1032 005e CF90      		pop r12
 1033 0060 0895      		ret
 1034               	.LFE28:
 1036               		.section	.text.r_itoa16,"ax",@progbits
 1037               	.global	r_itoa16
 1039               	r_itoa16:
 1040               	.LFB29:
 1041               	.LSM157:
 1042               	.LVL85:
 1043               	/* prologue: function */
 1044               	/* frame size = 0 */
 1045               	/* stack size = 0 */
 1046               	.L__stack_usage = 0
 1047 0000 DB01      		movw r26,r22
 1048               	.LSM158:
 1049 0002 FB01      		movw r30,r22
 1050 0004 3796      		adiw r30,7
 1051 0006 1796      		adiw r26,7
 1052 0008 1C92      		st X,__zero_reg__
 1053 000a 1797      		sbiw r26,7
 1054               	.LSM159:
 1055 000c 97FF      		sbrs r25,7
 1056 000e 00C0      		rjmp .L54
 1057               	.LSM160:
 1058 0010 2DE2      		ldi r18,lo8(45)
 1059 0012 2C93      		st X,r18
 1060               	.LSM161:
 1061 0014 9095      		com r25
 1062 0016 8195      		neg r24
 1063 0018 9F4F      		sbci r25,lo8(-1)
 1064               	.LVL86:
 1065 001a 00C0      		rjmp .L55
 1066               	.L54:
 1067               	.LSM162:
 1068 001c 20E2      		ldi r18,lo8(32)
 1069 001e 2C93      		st X,r18
 1070               	.L55:
 1071               	.LVL87:
 1072               	.LSM163:
 1073 0020 46E0      		ldi r20,lo8(6)
 1074               	.LSM164:
 1075 0022 2AE0      		ldi r18,lo8(10)
 1076 0024 30E0      		ldi r19,hi8(10)
 1077               	.LVL88:
 1078               	.L56:
 1079               	.LSM165:
 1080 0026 B901      		movw r22,r18
 1081 0028 0E94 0000 		call __divmodhi4
 1082               	.LVL89:
 1083 002c 805D      		subi r24,lo8(-(48))
 1084 002e 8293      		st -Z,r24
 1085               	.LSM166:
 1086 0030 CB01      		movw r24,r22
 1087               	.LVL90:
 1088               	.LSM167:
 1089 0032 4150      		subi r20,lo8(-(-1))
 1090               	.LVL91:
 1091 0034 01F4      		brne .L56
 1092               	/* epilogue start */
 1093               	.LSM168:
 1094 0036 0895      		ret
 1095               	.LFE29:
 1097               		.section	.text.lcd_puthex,"ax",@progbits
 1098               	.global	lcd_puthex
 1100               	lcd_puthex:
 1101               	.LFB30:
 1102               	.LSM169:
 1103               	.LVL92:
 1104 0000 DF93      		push r29
 1105 0002 CF93      		push r28
 1106 0004 00D0      		rcall .
 1107 0006 0F92      		push __tmp_reg__
 1108 0008 CDB7      		in r28,__SP_L__
 1109 000a DEB7      		in r29,__SP_H__
 1110               	/* prologue: function */
 1111               	/* frame size = 3 */
 1112               	/* stack size = 5 */
 1113               	.L__stack_usage = 5
 1114 000c 282F      		mov r18,r24
 1115               	.LSM170:
 1116 000e 1B82      		std Y+3,__zero_reg__
 1117               	.LSM171:
 1118 0010 8F70      		andi r24,lo8(15)
 1119               	.LVL93:
 1120               	.LSM172:
 1121 0012 8A30      		cpi r24,lo8(10)
 1122 0014 00F4      		brsh .L59
 1123               	.LSM173:
 1124 0016 805D      		subi r24,lo8(-(48))
 1125               	.LVL94:
 1126 0018 8A83      		std Y+2,r24
 1127 001a 00C0      		rjmp .L60
 1128               	.LVL95:
 1129               	.L59:
 1130               	.LSM174:
 1131 001c 6AE0      		ldi r22,lo8(10)
 1132 001e 0E94 0000 		call __udivmodqi4
 1133               	.LVL96:
 1134               	.LSM175:
 1135 0022 9F5B      		subi r25,lo8(-(65))
 1136               	.LVL97:
 1137 0024 9A83      		std Y+2,r25
 1138               	.LVL98:
 1139               	.L60:
 1140               	.LSM176:
 1141 0026 822F      		mov r24,r18
 1142 0028 8295      		swap r24
 1143 002a 8F70      		andi r24,lo8(15)
 1144               	.LVL99:
 1145               	.LSM177:
 1146 002c 8A30      		cpi r24,lo8(10)
 1147 002e 00F4      		brsh .L61
 1148               	.LSM178:
 1149 0030 805D      		subi r24,lo8(-(48))
 1150               	.LVL100:
 1151 0032 8983      		std Y+1,r24
 1152 0034 00C0      		rjmp .L62
 1153               	.LVL101:
 1154               	.L61:
 1155               	.LSM179:
 1156 0036 6AE0      		ldi r22,lo8(10)
 1157 0038 0E94 0000 		call __udivmodqi4
 1158               	.LVL102:
 1159               	.LSM180:
 1160 003c 9F5B      		subi r25,lo8(-(65))
 1161               	.LVL103:
 1162 003e 9983      		std Y+1,r25
 1163               	.LVL104:
 1164               	.L62:
 1165               	.LSM181:
 1166 0040 CE01      		movw r24,r28
 1167 0042 0196      		adiw r24,1
 1168 0044 0E94 0000 		call lcd_puts
 1169               	.LVL105:
 1170               	/* epilogue start */
 1171               	.LSM182:
 1172 0048 0F90      		pop __tmp_reg__
 1173 004a 0F90      		pop __tmp_reg__
 1174 004c 0F90      		pop __tmp_reg__
 1175 004e CF91      		pop r28
 1176 0050 DF91      		pop r29
 1177 0052 0895      		ret
 1178               	.LFE30:
 1180               		.section	.text.lcd_put_frac,"ax",@progbits
 1181               	.global	lcd_put_frac
 1183               	lcd_put_frac:
 1184               	.LFB31:
 1185               	.LSM183:
 1186               	.LVL106:
 1187 0000 EF92      		push r14
 1188 0002 FF92      		push r15
 1189 0004 0F93      		push r16
 1190 0006 1F93      		push r17
 1191 0008 CF93      		push r28
 1192 000a DF93      		push r29
 1193               	/* prologue: function */
 1194               	/* frame size = 0 */
 1195               	/* stack size = 6 */
 1196               	.L__stack_usage = 6
 1197 000c EC01      		movw r28,r24
 1198 000e 162F      		mov r17,r22
 1199 0010 042F      		mov r16,r20
 1200 0012 E22E      		mov r14,r18
 1201               	.LVL107:
 1202               	.LSM184:
 1203 0014 8881      		ld r24,Y
 1204               	.LVL108:
 1205 0016 8D32      		cpi r24,lo8(45)
 1206 0018 01F4      		brne .L64
 1207               	.LVL109:
 1208               	.L73:
 1209               	.LSM185:
 1210 001a 0E94 0000 		call lcd_putc
 1211               	.LSM186:
 1212 001e F12E      		mov r15,r17
 1213 0020 80E0      		ldi r24,lo8(0)
 1214 0022 00C0      		rjmp .L65
 1215               	.L64:
 1216               	.LSM187:
 1217 0024 80E2      		ldi r24,lo8(32)
 1218 0026 00C0      		rjmp .L73
 1219               	.LVL110:
 1220               	.L70:
 1221               	.LSM188:
 1222 0028 8130      		cpi r24,lo8(1)
 1223 002a 01F0      		breq .L67
 1224               	.LSM189:
 1225 002c FE01      		movw r30,r28
 1226 002e EF0D      		add r30,r15
 1227 0030 F11D      		adc r31,__zero_reg__
 1228 0032 8081      		ld r24,Z
 1229               	.LVL111:
 1230 0034 8033      		cpi r24,lo8(48)
 1231 0036 01F0      		breq .L68
 1232               	.L67:
 1233               	.LSM190:
 1234 0038 FE01      		movw r30,r28
 1235 003a EF0D      		add r30,r15
 1236 003c F11D      		adc r31,__zero_reg__
 1237 003e 8081      		ld r24,Z
 1238 0040 0E94 0000 		call lcd_putc
 1239               	.LVL112:
 1240               	.LSM191:
 1241 0044 81E0      		ldi r24,lo8(1)
 1242 0046 00C0      		rjmp .L69
 1243               	.LVL113:
 1244               	.L68:
 1245               	.LSM192:
 1246 0048 80E2      		ldi r24,lo8(32)
 1247 004a 0E94 0000 		call lcd_putc
 1248 004e 80E0      		ldi r24,lo8(0)
 1249               	.L69:
 1250               	.LVL114:
 1251               	.LSM193:
 1252 0050 FA94      		dec r15
 1253               	.LVL115:
 1254               	.L65:
 1255               	.LSM194:
 1256 0052 FF20      		tst r15
 1257 0054 01F4      		brne .L70
 1258               	.LSM195:
 1259 0056 8EE2      		ldi r24,lo8(46)
 1260               	.LVL116:
 1261 0058 0E94 0000 		call lcd_putc
 1262               	.LSM196:
 1263 005c 10E0      		ldi r17,lo8(0)
 1264               	.LVL117:
 1265 005e 0E0D      		add r16,r14
 1266 0060 111D      		adc r17,__zero_reg__
 1267               	.LVL118:
 1268 0062 00C0      		rjmp .L71
 1269               	.L72:
 1270               	.LSM197:
 1271 0064 8C0F      		add r24,r28
 1272 0066 9D1F      		adc r25,r29
 1273 0068 FC01      		movw r30,r24
 1274 006a 8081      		ld r24,Z
 1275 006c 0E94 0000 		call lcd_putc
 1276 0070 F394      		inc r15
 1277               	.LVL119:
 1278               	.L71:
 1279               	.LSM198:
 1280 0072 8F2D      		mov r24,r15
 1281 0074 90E0      		ldi r25,lo8(0)
 1282 0076 8017      		cp r24,r16
 1283 0078 9107      		cpc r25,r17
 1284 007a 04F0      		brlt .L72
 1285               	/* epilogue start */
 1286               	.LSM199:
 1287 007c DF91      		pop r29
 1288 007e CF91      		pop r28
 1289               	.LVL120:
 1290 0080 1F91      		pop r17
 1291 0082 0F91      		pop r16
 1292 0084 FF90      		pop r15
 1293               	.LVL121:
 1294 0086 EF90      		pop r14
 1295               	.LVL122:
 1296 0088 0895      		ret
 1297               	.LFE31:
 1299               		.section	.text.lcd_put_zeit,"ax",@progbits
 1300               	.global	lcd_put_zeit
 1302               	lcd_put_zeit:
 1303               	.LFB32:
 1304               	.LSM200:
 1305               	.LVL123:
 1306 0000 DF93      		push r29
 1307 0002 CF93      		push r28
 1308 0004 00D0      		rcall .
 1309 0006 00D0      		rcall .
 1310 0008 00D0      		rcall .
 1311 000a CDB7      		in r28,__SP_L__
 1312 000c DEB7      		in r29,__SP_H__
 1313               	/* prologue: function */
 1314               	/* frame size = 6 */
 1315               	/* stack size = 8 */
 1316               	.L__stack_usage = 8
 1317 000e 482F      		mov r20,r24
 1318 0010 362F      		mov r19,r22
 1319               	.LSM201:
 1320 0012 1E82      		std Y+6,__zero_reg__
 1321               	.LSM202:
 1322 0014 2AE0      		ldi r18,lo8(10)
 1323 0016 622F      		mov r22,r18
 1324               	.LVL124:
 1325 0018 0E94 0000 		call __udivmodqi4
 1326               	.LVL125:
 1327 001c 905D      		subi r25,lo8(-(48))
 1328 001e 9D83      		std Y+5,r25
 1329               	.LSM203:
 1330 0020 4A30      		cpi r20,lo8(10)
 1331 0022 00F0      		brlo .L75
 1332               	.LVL126:
 1333               	.LSM204:
 1334 0024 0E94 0000 		call __udivmodqi4
 1335 0028 905D      		subi r25,lo8(-(48))
 1336 002a 9C83      		std Y+4,r25
 1337 002c 00C0      		rjmp .L76
 1338               	.LVL127:
 1339               	.L75:
 1340               	.LSM205:
 1341 002e 80E3      		ldi r24,lo8(48)
 1342 0030 8C83      		std Y+4,r24
 1343               	.LVL128:
 1344               	.L76:
 1345               	.LSM206:
 1346 0032 8AE3      		ldi r24,lo8(58)
 1347 0034 8B83      		std Y+3,r24
 1348               	.LSM207:
 1349 0036 2AE0      		ldi r18,lo8(10)
 1350 0038 832F      		mov r24,r19
 1351 003a 622F      		mov r22,r18
 1352 003c 0E94 0000 		call __udivmodqi4
 1353 0040 905D      		subi r25,lo8(-(48))
 1354 0042 9A83      		std Y+2,r25
 1355               	.LSM208:
 1356 0044 3A30      		cpi r19,lo8(10)
 1357 0046 00F0      		brlo .L77
 1358               	.LVL129:
 1359               	.LSM209:
 1360 0048 0E94 0000 		call __udivmodqi4
 1361 004c 905D      		subi r25,lo8(-(48))
 1362 004e 9983      		std Y+1,r25
 1363 0050 00C0      		rjmp .L78
 1364               	.LVL130:
 1365               	.L77:
 1366               	.LSM210:
 1367 0052 80E3      		ldi r24,lo8(48)
 1368 0054 8983      		std Y+1,r24
 1369               	.LVL131:
 1370               	.L78:
 1371               	.LSM211:
 1372 0056 CE01      		movw r24,r28
 1373 0058 0196      		adiw r24,1
 1374 005a 0E94 0000 		call lcd_puts
 1375               	/* epilogue start */
 1376               	.LSM212:
 1377 005e 2696      		adiw r28,6
 1378 0060 0FB6      		in __tmp_reg__,__SREG__
 1379 0062 F894      		cli
 1380 0064 DEBF      		out __SP_H__,r29
 1381 0066 0FBE      		out __SREG__,__tmp_reg__
 1382 0068 CDBF      		out __SP_L__,r28
 1383 006a CF91      		pop r28
 1384 006c DF91      		pop r29
 1385 006e 0895      		ret
 1386               	.LFE32:
 1388               		.section	.text.lcd_put_wochentag,"ax",@progbits
 1389               	.global	lcd_put_wochentag
 1391               	lcd_put_wochentag:
 1392               	.LFB33:
 1393               	.LSM213:
 1394               	.LVL132:
 1395 0000 DF93      		push r29
 1396 0002 CF93      		push r28
 1397 0004 CDB7      		in r28,__SP_L__
 1398 0006 DEB7      		in r29,__SP_H__
 1399 0008 2E97      		sbiw r28,14
 1400 000a 0FB6      		in __tmp_reg__,__SREG__
 1401 000c F894      		cli
 1402 000e DEBF      		out __SP_H__,r29
 1403 0010 0FBE      		out __SREG__,__tmp_reg__
 1404 0012 CDBF      		out __SP_L__,r28
 1405               	/* prologue: function */
 1406               	/* frame size = 14 */
 1407               	/* stack size = 16 */
 1408               	.L__stack_usage = 16
 1409               	.LSM214:
 1410 0014 FE01      		movw r30,r28
 1411 0016 3196      		adiw r30,1
 1412 0018 A0E0      		ldi r26,lo8(C.246.4412)
 1413 001a B0E0      		ldi r27,hi8(C.246.4412)
 1414 001c 9EE0      		ldi r25,lo8(14)
 1415               	.L80:
 1416 001e 0D90      		ld r0,X+
 1417 0020 0192      		st Z+,r0
 1418 0022 9150      		subi r25,lo8(-(-1))
 1419 0024 01F4      		brne .L80
 1420               	.LSM215:
 1421 0026 E82F      		mov r30,r24
 1422 0028 F0E0      		ldi r31,lo8(0)
 1423 002a 3197      		sbiw r30,1
 1424 002c EE0F      		lsl r30
 1425 002e FF1F      		rol r31
 1426 0030 EC0F      		add r30,r28
 1427 0032 FD1F      		adc r31,r29
 1428 0034 8181      		ldd r24,Z+1
 1429 0036 9281      		ldd r25,Z+2
 1430               	.LVL133:
 1431 0038 0E94 0000 		call lcd_puts
 1432               	/* epilogue start */
 1433               	.LSM216:
 1434 003c 2E96      		adiw r28,14
 1435 003e 0FB6      		in __tmp_reg__,__SREG__
 1436 0040 F894      		cli
 1437 0042 DEBF      		out __SP_H__,r29
 1438 0044 0FBE      		out __SREG__,__tmp_reg__
 1439 0046 CDBF      		out __SP_L__,r28
 1440 0048 CF91      		pop r28
 1441 004a DF91      		pop r29
 1442 004c 0895      		ret
 1443               	.LFE33:
 1445               		.section	.text.lcd_put_temperatur,"ax",@progbits
 1446               	.global	lcd_put_temperatur
 1448               	lcd_put_temperatur:
 1449               	.LFB34:
 1450               	.LSM217:
 1451               	.LVL134:
 1452 0000 BF92      		push r11
 1453 0002 CF92      		push r12
 1454 0004 DF92      		push r13
 1455 0006 EF92      		push r14
 1456 0008 FF92      		push r15
 1457 000a 0F93      		push r16
 1458 000c 1F93      		push r17
 1459 000e DF93      		push r29
 1460 0010 CF93      		push r28
 1461 0012 CDB7      		in r28,__SP_L__
 1462 0014 DEB7      		in r29,__SP_H__
 1463 0016 6097      		sbiw r28,16
 1464 0018 0FB6      		in __tmp_reg__,__SREG__
 1465 001a F894      		cli
 1466 001c DEBF      		out __SP_H__,r29
 1467 001e 0FBE      		out __SREG__,__tmp_reg__
 1468 0020 CDBF      		out __SP_L__,r28
 1469               	/* prologue: function */
 1470               	/* frame size = 16 */
 1471               	/* stack size = 25 */
 1472               	.L__stack_usage = 25
 1473               	.LSM218:
 1474 0022 68E0      		ldi r22,lo8(8)
 1475 0024 B62E      		mov r11,r22
 1476 0026 6E01      		movw r12,r28
 1477 0028 0894      		sec
 1478 002a C11C      		adc r12,__zero_reg__
 1479 002c D11C      		adc r13,__zero_reg__
 1480 002e D601      		movw r26,r12
 1481 0030 EB2D      		mov r30,r11
 1482 0032 1D92      		st X+,__zero_reg__
 1483 0034 EA95      	        dec r30
 1484 0036 01F4      		brne .-6
 1485               	.LSM219:
 1486 0038 7C01      		movw r14,r24
 1487 003a EE0C      		lsl r14
 1488 003c FF1C      		rol r15
 1489 003e EE0C      		lsl r14
 1490 0040 FF1C      		rol r15
 1491 0042 E80E      		add r14,r24
 1492 0044 F91E      		adc r15,r25
 1493               	.LSM220:
 1494 0046 80E0      		ldi r24,lo8(0)
 1495               	.LVL135:
 1496 0048 61E0      		ldi r22,lo8(1)
 1497 004a 0E94 0000 		call lcd_gotoxy
 1498               	.LSM221:
 1499 004e C701      		movw r24,r14
 1500 0050 0E94 0000 		call lcd_putint16
 1501               	.LSM222:
 1502 0054 8701      		movw r16,r14
 1503 0056 C701      		movw r24,r14
 1504 0058 B601      		movw r22,r12
 1505 005a 0E94 0000 		call r_itoa16
 1506               	.LSM223:
 1507 005e FE01      		movw r30,r28
 1508 0060 3996      		adiw r30,9
 1509 0062 DF01      		movw r26,r30
 1510 0064 1D92      		st X+,__zero_reg__
 1511 0066 BA94      	        dec r11
 1512 0068 01F4      		brne .-6
 1513               	.LSM224:
 1514 006a 8FED      		ldi r24,lo8(-33)
 1515 006c 8F87      		std Y+15,r24
 1516               	.LSM225:
 1517 006e 8F81      		ldd r24,Y+7
 1518 0070 8E87      		std Y+14,r24
 1519               	.LSM226:
 1520 0072 8EE2      		ldi r24,lo8(46)
 1521 0074 8D87      		std Y+13,r24
 1522               	.LSM227:
 1523 0076 8E81      		ldd r24,Y+6
 1524 0078 8C87      		std Y+12,r24
 1525               	.LSM228:
 1526 007a BFEF      		ldi r27,hi8(-99)
 1527 007c 0D39      		cpi r16,lo8(-99)
 1528 007e 1B07      		cpc r17,r27
 1529 0080 04F0      		brlt .L83
 1530               	.LSM229:
 1531 0082 0436      		cpi r16,100
 1532 0084 1105      		cpc r17,__zero_reg__
 1533 0086 04F4      		brge .L84
 1534               	.LSM230:
 1535 0088 80E2      		ldi r24,lo8(32)
 1536 008a 8B87      		std Y+11,r24
 1537 008c 00C0      		rjmp .L88
 1538               	.L83:
 1539               	.LSM231:
 1540 008e ECEF      		ldi r30,hi8(-999)
 1541 0090 0931      		cpi r16,lo8(-999)
 1542 0092 1E07      		cpc r17,r30
 1543 0094 04F0      		brlt .L87
 1544 0096 00C0      		rjmp .L86
 1545               	.L84:
 1546               	.LSM232:
 1547 0098 F3E0      		ldi r31,hi8(1000)
 1548 009a 083E      		cpi r16,lo8(1000)
 1549 009c 1F07      		cpc r17,r31
 1550 009e 04F4      		brge .L87
 1551               	.L86:
 1552               	.LSM233:
 1553 00a0 8D81      		ldd r24,Y+5
 1554 00a2 8B87      		std Y+11,r24
 1555               	.LSM234:
 1556 00a4 80E2      		ldi r24,lo8(32)
 1557 00a6 00C0      		rjmp .L88
 1558               	.L87:
 1559               	.LSM235:
 1560 00a8 8D81      		ldd r24,Y+5
 1561 00aa 8B87      		std Y+11,r24
 1562               	.LSM236:
 1563 00ac 8C81      		ldd r24,Y+4
 1564               	.L88:
 1565 00ae 8A87      		std Y+10,r24
 1566               	.LSM237:
 1567 00b0 8981      		ldd r24,Y+1
 1568 00b2 8987      		std Y+9,r24
 1569               	.LSM238:
 1570 00b4 CE01      		movw r24,r28
 1571 00b6 0996      		adiw r24,9
 1572 00b8 0E94 0000 		call lcd_puts
 1573               	/* epilogue start */
 1574               	.LSM239:
 1575 00bc 6096      		adiw r28,16
 1576 00be 0FB6      		in __tmp_reg__,__SREG__
 1577 00c0 F894      		cli
 1578 00c2 DEBF      		out __SP_H__,r29
 1579 00c4 0FBE      		out __SREG__,__tmp_reg__
 1580 00c6 CDBF      		out __SP_L__,r28
 1581 00c8 CF91      		pop r28
 1582 00ca DF91      		pop r29
 1583 00cc 1F91      		pop r17
 1584 00ce 0F91      		pop r16
 1585 00d0 FF90      		pop r15
 1586 00d2 EF90      		pop r14
 1587 00d4 DF90      		pop r13
 1588 00d6 CF90      		pop r12
 1589 00d8 BF90      		pop r11
 1590 00da 0895      		ret
 1591               	.LFE34:
 1593               		.data
 1594               	.LC0:
 1595 0000 543A 00   		.string	"T:"
 1596 0003 00        		.string	""
 1597               		.section	.text.lcd_put_tempbis99,"ax",@progbits
 1598               	.global	lcd_put_tempbis99
 1600               	lcd_put_tempbis99:
 1601               	.LFB35:
 1602               	.LSM240:
 1603               	.LVL136:
 1604 0000 BF92      		push r11
 1605 0002 CF92      		push r12
 1606 0004 DF92      		push r13
 1607 0006 EF92      		push r14
 1608 0008 FF92      		push r15
 1609 000a 0F93      		push r16
 1610 000c 1F93      		push r17
 1611 000e DF93      		push r29
 1612 0010 CF93      		push r28
 1613 0012 CDB7      		in r28,__SP_L__
 1614 0014 DEB7      		in r29,__SP_H__
 1615 0016 2E97      		sbiw r28,14
 1616 0018 0FB6      		in __tmp_reg__,__SREG__
 1617 001a F894      		cli
 1618 001c DEBF      		out __SP_H__,r29
 1619 001e 0FBE      		out __SREG__,__tmp_reg__
 1620 0020 CDBF      		out __SP_L__,r28
 1621               	/* prologue: function */
 1622               	/* frame size = 14 */
 1623               	/* stack size = 23 */
 1624               	.L__stack_usage = 23
 1625               	.LSM241:
 1626 0022 E7E0      		ldi r30,lo8(7)
 1627 0024 BE2E      		mov r11,r30
 1628 0026 6E01      		movw r12,r28
 1629 0028 0894      		sec
 1630 002a C11C      		adc r12,__zero_reg__
 1631 002c D11C      		adc r13,__zero_reg__
 1632 002e D601      		movw r26,r12
 1633 0030 EB2D      		mov r30,r11
 1634 0032 1D92      		st X+,__zero_reg__
 1635 0034 EA95      	        dec r30
 1636 0036 01F4      		brne .-6
 1637               	.LSM242:
 1638 0038 7C01      		movw r14,r24
 1639 003a EE0C      		lsl r14
 1640 003c FF1C      		rol r15
 1641 003e EE0C      		lsl r14
 1642 0040 FF1C      		rol r15
 1643 0042 E80E      		add r14,r24
 1644 0044 F91E      		adc r15,r25
 1645               	.LSM243:
 1646 0046 80E0      		ldi r24,lo8(.LC0)
 1647 0048 90E0      		ldi r25,hi8(.LC0)
 1648               	.LVL137:
 1649 004a 0E94 0000 		call lcd_puts
 1650               	.LSM244:
 1651 004e C701      		movw r24,r14
 1652 0050 0E94 0000 		call lcd_putint16
 1653               	.LSM245:
 1654 0054 8701      		movw r16,r14
 1655 0056 C701      		movw r24,r14
 1656 0058 B601      		movw r22,r12
 1657 005a 0E94 0000 		call r_itoa16
 1658               	.LSM246:
 1659 005e FE01      		movw r30,r28
 1660 0060 3896      		adiw r30,8
 1661 0062 DF01      		movw r26,r30
 1662 0064 1D92      		st X+,__zero_reg__
 1663 0066 BA94      	        dec r11
 1664 0068 01F4      		brne .-6
 1665               	.LSM247:
 1666 006a 8FED      		ldi r24,lo8(-33)
 1667 006c 8D87      		std Y+13,r24
 1668               	.LSM248:
 1669 006e 8F81      		ldd r24,Y+7
 1670 0070 8C87      		std Y+12,r24
 1671               	.LSM249:
 1672 0072 8EE2      		ldi r24,lo8(46)
 1673 0074 8B87      		std Y+11,r24
 1674               	.LSM250:
 1675 0076 8E81      		ldd r24,Y+6
 1676 0078 8A87      		std Y+10,r24
 1677               	.LSM251:
 1678 007a BFEF      		ldi r27,hi8(-99)
 1679 007c 0D39      		cpi r16,lo8(-99)
 1680 007e 1B07      		cpc r17,r27
 1681 0080 04F0      		brlt .L90
 1682               	.LSM252:
 1683 0082 0436      		cpi r16,100
 1684 0084 1105      		cpc r17,__zero_reg__
 1685 0086 04F4      		brge .L90
 1686               	.LSM253:
 1687 0088 80E2      		ldi r24,lo8(32)
 1688 008a 00C0      		rjmp .L92
 1689               	.L90:
 1690               	.LSM254:
 1691 008c 8D81      		ldd r24,Y+5
 1692               	.L92:
 1693 008e 8987      		std Y+9,r24
 1694               	.LSM255:
 1695 0090 8981      		ldd r24,Y+1
 1696 0092 8887      		std Y+8,r24
 1697               	.LSM256:
 1698 0094 CE01      		movw r24,r28
 1699 0096 0896      		adiw r24,8
 1700 0098 0E94 0000 		call lcd_puts
 1701               	.LSM257:
 1702 009c 82E0      		ldi r24,lo8(2)
 1703 009e 90E0      		ldi r25,hi8(2)
 1704 00a0 0E94 0000 		call lcddelay_ms
 1705               	/* epilogue start */
 1706               	.LSM258:
 1707 00a4 2E96      		adiw r28,14
 1708 00a6 0FB6      		in __tmp_reg__,__SREG__
 1709 00a8 F894      		cli
 1710 00aa DEBF      		out __SP_H__,r29
 1711 00ac 0FBE      		out __SREG__,__tmp_reg__
 1712 00ae CDBF      		out __SP_L__,r28
 1713 00b0 CF91      		pop r28
 1714 00b2 DF91      		pop r29
 1715 00b4 1F91      		pop r17
 1716 00b6 0F91      		pop r16
 1717 00b8 FF90      		pop r15
 1718 00ba EF90      		pop r14
 1719 00bc DF90      		pop r13
 1720 00be CF90      		pop r12
 1721 00c0 BF90      		pop r11
 1722 00c2 0895      		ret
 1723               	.LFE35:
 1725               		.section	.text.readKanal16Bit,"ax",@progbits
 1726               	.global	readKanal16Bit
 1728               	readKanal16Bit:
 1729               	.LFB36:
 1730               	.LSM259:
 1731               	.LVL138:
 1732 0000 DF93      		push r29
 1733 0002 CF93      		push r28
 1734 0004 00D0      		rcall .
 1735 0006 0F92      		push __tmp_reg__
 1736 0008 CDB7      		in r28,__SP_L__
 1737 000a DEB7      		in r29,__SP_H__
 1738               	/* prologue: function */
 1739               	/* frame size = 3 */
 1740               	/* stack size = 5 */
 1741               	.L__stack_usage = 5
 1742               	.LSM260:
 1743 000c 95E8      		ldi r25,lo8(-123)
 1744 000e 9093 7A00 		sts 122,r25
 1745               	.LSM261:
 1746 0012 8093 7C00 		sts 124,r24
 1747               	.LSM262:
 1748 0016 8091 7C00 		lds r24,124
 1749               	.LVL139:
 1750 001a 8064      		ori r24,lo8(64)
 1751 001c 8093 7C00 		sts 124,r24
 1752               	.LSM263:
 1753 0020 8091 7A00 		lds r24,122
 1754 0024 8064      		ori r24,lo8(64)
 1755 0026 8093 7A00 		sts 122,r24
 1756               	.L94:
 1757               	.LSM264:
 1758 002a 8091 7A00 		lds r24,122
 1759 002e 86FD      		sbrc r24,6
 1760 0030 00C0      		rjmp .L94
 1761               	.LSM265:
 1762 0032 8091 7A00 		lds r24,122
 1763 0036 8064      		ori r24,lo8(64)
 1764 0038 8093 7A00 		sts 122,r24
 1765               	.L95:
 1766               	.LSM266:
 1767 003c 8091 7A00 		lds r24,122
 1768 0040 86FD      		sbrc r24,6
 1769 0042 00C0      		rjmp .L95
 1770               	.LSM267:
 1771 0044 7091 7800 		lds r23,120
 1772               	.LSM268:
 1773 0048 6091 7900 		lds r22,121
 1774               	.LSM269:
 1775 004c 8091 7800 		lds r24,120
 1776 0050 9091 7900 		lds r25,120+1
 1777               	.LSM270:
 1778 0054 2091 7A00 		lds r18,122
 1779 0058 2F77      		andi r18,lo8(127)
 1780 005a 2093 7A00 		sts 122,r18
 1781               	.LSM271:
 1782 005e 880F      		lsl r24
 1783 0060 880F      		lsl r24
 1784 0062 90E0      		ldi r25,lo8(0)
 1785               	/* epilogue start */
 1786 0064 0F90      		pop __tmp_reg__
 1787 0066 0F90      		pop __tmp_reg__
 1788 0068 0F90      		pop __tmp_reg__
 1789 006a CF91      		pop r28
 1790 006c DF91      		pop r29
 1791 006e 0895      		ret
 1792               	.LFE36:
 1794               		.section	.text.initADC,"ax",@progbits
 1795               	.global	initADC
 1797               	initADC:
 1798               	.LFB37:
 1799               	.LSM272:
 1800               	.LVL140:
 1801               	/* prologue: function */
 1802               	/* frame size = 0 */
 1803               	/* stack size = 0 */
 1804               	.L__stack_usage = 0
 1805               	.LSM273:
 1806 0000 95E8      		ldi r25,lo8(-123)
 1807 0002 9093 7A00 		sts 122,r25
 1808               	.LSM274:
 1809 0006 8093 7C00 		sts 124,r24
 1810               	.LSM275:
 1811 000a 8091 7C00 		lds r24,124
 1812               	.LVL141:
 1813 000e 806C      		ori r24,lo8(-64)
 1814 0010 8093 7C00 		sts 124,r24
 1815               	.LSM276:
 1816 0014 8091 7A00 		lds r24,122
 1817 0018 8064      		ori r24,lo8(64)
 1818 001a 8093 7A00 		sts 122,r24
 1819               	.L99:
 1820               	.LSM277:
 1821 001e 8091 7A00 		lds r24,122
 1822 0022 86FD      		sbrc r24,6
 1823 0024 00C0      		rjmp .L99
 1824               	/* epilogue start */
 1825               	.LSM278:
 1826 0026 0895      		ret
 1827               	.LFE37:
 1829               		.section	.text.readKanal,"ax",@progbits
 1830               	.global	readKanal
 1832               	readKanal:
 1833               	.LFB38:
 1834               	.LSM279:
 1835               	.LVL142:
 1836               	/* prologue: function */
 1837               	/* frame size = 0 */
 1838               	/* stack size = 0 */
 1839               	.L__stack_usage = 0
 1840               	.LSM280:
 1841 0000 9091 7C00 		lds r25,124
 1842 0004 982B      		or r25,r24
 1843 0006 9093 7C00 		sts 124,r25
 1844               	.LVL143:
 1845 000a 44E0      		ldi r20,lo8(4)
 1846               	.LSM281:
 1847 000c 20E0      		ldi r18,lo8(0)
 1848 000e 30E0      		ldi r19,hi8(0)
 1849               	.LVL144:
 1850               	.L103:
 1851               	.LSM282:
 1852 0010 8091 7A00 		lds r24,122
 1853 0014 8064      		ori r24,lo8(64)
 1854 0016 8093 7A00 		sts 122,r24
 1855               	.L102:
 1856               	.LSM283:
 1857 001a 8091 7A00 		lds r24,122
 1858 001e 86FD      		sbrc r24,6
 1859 0020 00C0      		rjmp .L102
 1860               	.LSM284:
 1861 0022 8091 7800 		lds r24,120
 1862 0026 9091 7900 		lds r25,120+1
 1863 002a 280F      		add r18,r24
 1864 002c 391F      		adc r19,r25
 1865               	.LVL145:
 1866 002e 4150      		subi r20,lo8(-(-1))
 1867               	.LSM285:
 1868 0030 01F4      		brne .L103
 1869               	.LVL146:
 1870               	.LSM286:
 1871 0032 3695      		lsr r19
 1872 0034 2795      		ror r18
 1873 0036 3695      		lsr r19
 1874 0038 2795      		ror r18
 1875               	.LVL147:
 1876               	.LSM287:
 1877 003a C901      		movw r24,r18
 1878               	/* epilogue start */
 1879 003c 0895      		ret
 1880               	.LFE38:
 1882               		.section	.text.closeADC,"ax",@progbits
 1883               	.global	closeADC
 1885               	closeADC:
 1886               	.LFB39:
 1887               	.LSM288:
 1888               	/* prologue: function */
 1889               	/* frame size = 0 */
 1890               	/* stack size = 0 */
 1891               	.L__stack_usage = 0
 1892               	.LSM289:
 1893 0000 EAE7      		ldi r30,lo8(122)
 1894 0002 F0E0      		ldi r31,hi8(122)
 1895 0004 8081      		ld r24,Z
 1896 0006 8F77      		andi r24,lo8(127)
 1897 0008 8083      		st Z,r24
 1898               	/* epilogue start */
 1899               	.LSM290:
 1900 000a 0895      		ret
 1901               	.LFE39:
 1903               		.section	.text.readKanalOrig,"ax",@progbits
 1904               	.global	readKanalOrig
 1906               	readKanalOrig:
 1907               	.LFB40:
 1908               	.LSM291:
 1909               	.LVL148:
 1910               	/* prologue: function */
 1911               	/* frame size = 0 */
 1912               	/* stack size = 0 */
 1913               	.L__stack_usage = 0
 1914               	.LSM292:
 1915 0000 95E8      		ldi r25,lo8(-123)
 1916 0002 9093 7A00 		sts 122,r25
 1917               	.LSM293:
 1918 0006 8093 7C00 		sts 124,r24
 1919               	.LSM294:
 1920 000a 8091 7C00 		lds r24,124
 1921               	.LVL149:
 1922 000e 8064      		ori r24,lo8(64)
 1923 0010 8093 7C00 		sts 124,r24
 1924               	.LSM295:
 1925 0014 8091 7A00 		lds r24,122
 1926 0018 8064      		ori r24,lo8(64)
 1927 001a 8093 7A00 		sts 122,r24
 1928               	.L108:
 1929               	.LSM296:
 1930 001e 8091 7A00 		lds r24,122
 1931 0022 86FD      		sbrc r24,6
 1932 0024 00C0      		rjmp .L108
 1933               	.LSM297:
 1934 0026 44E0      		ldi r20,lo8(4)
 1935 0028 20E0      		ldi r18,lo8(0)
 1936 002a 30E0      		ldi r19,hi8(0)
 1937               	.LVL150:
 1938               	.L110:
 1939               	.LSM298:
 1940 002c 8091 7A00 		lds r24,122
 1941 0030 8064      		ori r24,lo8(64)
 1942 0032 8093 7A00 		sts 122,r24
 1943               	.L109:
 1944               	.LSM299:
 1945 0036 8091 7A00 		lds r24,122
 1946 003a 86FD      		sbrc r24,6
 1947 003c 00C0      		rjmp .L109
 1948               	.LSM300:
 1949 003e 8091 7800 		lds r24,120
 1950 0042 9091 7900 		lds r25,120+1
 1951 0046 280F      		add r18,r24
 1952 0048 391F      		adc r19,r25
 1953               	.LVL151:
 1954 004a 4150      		subi r20,lo8(-(-1))
 1955               	.LSM301:
 1956 004c 01F4      		brne .L110
 1957               	.LSM302:
 1958 004e 8091 7A00 		lds r24,122
 1959 0052 8F77      		andi r24,lo8(127)
 1960 0054 8093 7A00 		sts 122,r24
 1961               	.LVL152:
 1962               	.LSM303:
 1963 0058 3695      		lsr r19
 1964 005a 2795      		ror r18
 1965 005c 3695      		lsr r19
 1966 005e 2795      		ror r18
 1967               	.LVL153:
 1968               	.LSM304:
 1969 0060 C901      		movw r24,r18
 1970               	/* epilogue start */
 1971 0062 0895      		ret
 1972               	.LFE40:
 1974               		.section	.text.usb_init,"ax",@progbits
 1975               	.global	usb_init
 1977               	usb_init:
 1978               	.LFB41:
 1979               	.LSM305:
 1980               	/* prologue: function */
 1981               	/* frame size = 0 */
 1982               	/* stack size = 0 */
 1983               	.L__stack_usage = 0
 1984               	.LSM306:
 1985 0000 81E8      		ldi r24,lo8(-127)
 1986 0002 8093 D700 		sts 215,r24
 1987               	.LSM307:
 1988 0006 80EA      		ldi r24,lo8(-96)
 1989 0008 8093 D800 		sts 216,r24
 1990               	.LSM308:
 1991 000c 86E1      		ldi r24,lo8(22)
 1992 000e 89BD      		out 73-32,r24
 1993               	.L115:
 1994               	.LSM309:
 1995 0010 09B4      		in __tmp_reg__,73-32
 1996 0012 00FE      		sbrs __tmp_reg__,0
 1997 0014 00C0      		rjmp .L115
 1998               	.LSM310:
 1999 0016 80E9      		ldi r24,lo8(-112)
 2000 0018 8093 D800 		sts 216,r24
 2001               	.LSM311:
 2002 001c 1092 E000 		sts 224,__zero_reg__
 2003               	.LSM312:
 2004 0020 1092 0000 		sts usb_configuration,__zero_reg__
 2005               	.LSM313:
 2006 0024 8CE0      		ldi r24,lo8(12)
 2007 0026 8093 E200 		sts 226,r24
 2008               	.LSM314:
 2009               	/* #APP */
 2010               	 ;  270 "usb_rawhid.c" 1
 2011 002a 7894      		sei
 2012               	 ;  0 "" 2
 2013               	/* epilogue start */
 2014               	.LSM315:
 2015               	/* #NOAPP */
 2016 002c 0895      		ret
 2017               	.LFE41:
 2019               		.section	.text.usb_configured,"ax",@progbits
 2020               	.global	usb_configured
 2022               	usb_configured:
 2023               	.LFB42:
 2024               	.LSM316:
 2025               	/* prologue: function */
 2026               	/* frame size = 0 */
 2027               	/* stack size = 0 */
 2028               	.L__stack_usage = 0
 2029               	.LSM317:
 2030 0000 8091 0000 		lds r24,usb_configuration
 2031               	/* epilogue start */
 2032               	.LSM318:
 2033 0004 0895      		ret
 2034               	.LFE42:
 2036               		.section	.text.usb_rawhid_recv,"ax",@progbits
 2037               	.global	usb_rawhid_recv
 2039               	usb_rawhid_recv:
 2040               	.LFB43:
 2041               	.LSM319:
 2042               	.LVL154:
 2043               	/* prologue: function */
 2044               	/* frame size = 0 */
 2045               	/* stack size = 0 */
 2046               	.L__stack_usage = 0
 2047               	.LSM320:
 2048 0000 2091 0000 		lds r18,usb_configuration
 2049 0004 2223      		tst r18
 2050 0006 01F4      		brne .+2
 2051 0008 00C0      		rjmp .L122
 2052               	.LSM321:
 2053 000a 2FB7      		in r18,__SREG__
 2054               	.LVL155:
 2055               	.LSM322:
 2056               	/* #APP */
 2057               	 ;  289 "usb_rawhid.c" 1
 2058 000c F894      		cli
 2059               	 ;  0 "" 2
 2060               	.LSM323:
 2061               	/* #NOAPP */
 2062 000e 6093 0000 		sts rx_timeout_count,r22
 2063               	.LSM324:
 2064 0012 32E0      		ldi r19,lo8(2)
 2065               	.L125:
 2066 0014 3093 E900 		sts 233,r19
 2067               	.LSM325:
 2068 0018 4091 E800 		lds r20,232
 2069 001c 45FD      		sbrc r20,5
 2070 001e 00C0      		rjmp .L120
 2071               	.LSM326:
 2072 0020 2FBF      		out __SREG__,r18
 2073               	.LSM327:
 2074 0022 2091 0000 		lds r18,rx_timeout_count
 2075               	.LVL156:
 2076 0026 2223      		tst r18
 2077 0028 01F4      		brne .+2
 2078 002a 00C0      		rjmp .L123
 2079               	.LSM328:
 2080 002c 2091 0000 		lds r18,usb_configuration
 2081 0030 2223      		tst r18
 2082 0032 01F4      		brne .+2
 2083 0034 00C0      		rjmp .L124
 2084               	.LSM329:
 2085 0036 2FB7      		in r18,__SREG__
 2086               	.LVL157:
 2087               	.LSM330:
 2088               	/* #APP */
 2089               	 ;  300 "usb_rawhid.c" 1
 2090 0038 F894      		cli
 2091               	 ;  0 "" 2
 2092               	/* #NOAPP */
 2093 003a 00C0      		rjmp .L125
 2094               	.L120:
 2095               	.LSM331:
 2096 003c 3091 F100 		lds r19,241
 2097 0040 FC01      		movw r30,r24
 2098 0042 3193      		st Z+,r19
 2099               	.LVL158:
 2100               	.LSM332:
 2101 0044 3091 F100 		lds r19,241
 2102 0048 DC01      		movw r26,r24
 2103 004a 1196      		adiw r26,1
 2104 004c 3C93      		st X,r19
 2105 004e DF01      		movw r26,r30
 2106 0050 1196      		adiw r26,1
 2107               	.LVL159:
 2108               	.LSM333:
 2109 0052 8091 F100 		lds r24,241
 2110 0056 8183      		std Z+1,r24
 2111 0058 FD01      		movw r30,r26
 2112 005a 3196      		adiw r30,1
 2113               	.LVL160:
 2114               	.LSM334:
 2115 005c 8091 F100 		lds r24,241
 2116 0060 1196      		adiw r26,1
 2117 0062 8C93      		st X,r24
 2118 0064 DF01      		movw r26,r30
 2119 0066 1196      		adiw r26,1
 2120               	.LVL161:
 2121               	.LSM335:
 2122 0068 8091 F100 		lds r24,241
 2123 006c 8183      		std Z+1,r24
 2124 006e FD01      		movw r30,r26
 2125 0070 3196      		adiw r30,1
 2126               	.LVL162:
 2127               	.LSM336:
 2128 0072 8091 F100 		lds r24,241
 2129 0076 1196      		adiw r26,1
 2130 0078 8C93      		st X,r24
 2131 007a DF01      		movw r26,r30
 2132 007c 1196      		adiw r26,1
 2133               	.LVL163:
 2134               	.LSM337:
 2135 007e 8091 F100 		lds r24,241
 2136 0082 8183      		std Z+1,r24
 2137 0084 FD01      		movw r30,r26
 2138 0086 3196      		adiw r30,1
 2139               	.LVL164:
 2140               	.LSM338:
 2141 0088 8091 F100 		lds r24,241
 2142 008c 1196      		adiw r26,1
 2143 008e 8C93      		st X,r24
 2144 0090 DF01      		movw r26,r30
 2145 0092 1196      		adiw r26,1
 2146               	.LVL165:
 2147               	.LSM339:
 2148 0094 8091 F100 		lds r24,241
 2149 0098 8183      		std Z+1,r24
 2150 009a FD01      		movw r30,r26
 2151 009c 3196      		adiw r30,1
 2152               	.LVL166:
 2153               	.LSM340:
 2154 009e 8091 F100 		lds r24,241
 2155 00a2 1196      		adiw r26,1
 2156 00a4 8C93      		st X,r24
 2157 00a6 DF01      		movw r26,r30
 2158 00a8 1196      		adiw r26,1
 2159               	.LVL167:
 2160               	.LSM341:
 2161 00aa 8091 F100 		lds r24,241
 2162 00ae 8183      		std Z+1,r24
 2163 00b0 FD01      		movw r30,r26
 2164 00b2 3196      		adiw r30,1
 2165               	.LVL168:
 2166               	.LSM342:
 2167 00b4 8091 F100 		lds r24,241
 2168 00b8 1196      		adiw r26,1
 2169 00ba 8C93      		st X,r24
 2170 00bc DF01      		movw r26,r30
 2171 00be 1196      		adiw r26,1
 2172               	.LVL169:
 2173               	.LSM343:
 2174 00c0 8091 F100 		lds r24,241
 2175 00c4 8183      		std Z+1,r24
 2176 00c6 FD01      		movw r30,r26
 2177 00c8 3196      		adiw r30,1
 2178               	.LVL170:
 2179               	.LSM344:
 2180 00ca 8091 F100 		lds r24,241
 2181 00ce 1196      		adiw r26,1
 2182 00d0 8C93      		st X,r24
 2183 00d2 DF01      		movw r26,r30
 2184 00d4 1196      		adiw r26,1
 2185               	.LVL171:
 2186               	.LSM345:
 2187 00d6 8091 F100 		lds r24,241
 2188 00da 8183      		std Z+1,r24
 2189 00dc FD01      		movw r30,r26
 2190 00de 3196      		adiw r30,1
 2191               	.LVL172:
 2192               	.LSM346:
 2193 00e0 8091 F100 		lds r24,241
 2194 00e4 1196      		adiw r26,1
 2195 00e6 8C93      		st X,r24
 2196 00e8 DF01      		movw r26,r30
 2197 00ea 1196      		adiw r26,1
 2198               	.LVL173:
 2199               	.LSM347:
 2200 00ec 8091 F100 		lds r24,241
 2201 00f0 8183      		std Z+1,r24
 2202 00f2 FD01      		movw r30,r26
 2203 00f4 3196      		adiw r30,1
 2204               	.LVL174:
 2205               	.LSM348:
 2206 00f6 8091 F100 		lds r24,241
 2207 00fa 1196      		adiw r26,1
 2208 00fc 8C93      		st X,r24
 2209 00fe DF01      		movw r26,r30
 2210 0100 1196      		adiw r26,1
 2211               	.LVL175:
 2212               	.LSM349:
 2213 0102 8091 F100 		lds r24,241
 2214 0106 8183      		std Z+1,r24
 2215 0108 FD01      		movw r30,r26
 2216 010a 3196      		adiw r30,1
 2217               	.LVL176:
 2218               	.LSM350:
 2219 010c 8091 F100 		lds r24,241
 2220 0110 1196      		adiw r26,1
 2221 0112 8C93      		st X,r24
 2222 0114 DF01      		movw r26,r30
 2223 0116 1196      		adiw r26,1
 2224               	.LVL177:
 2225               	.LSM351:
 2226 0118 8091 F100 		lds r24,241
 2227 011c 8183      		std Z+1,r24
 2228 011e FD01      		movw r30,r26
 2229 0120 3196      		adiw r30,1
 2230               	.LVL178:
 2231               	.LSM352:
 2232 0122 8091 F100 		lds r24,241
 2233 0126 1196      		adiw r26,1
 2234 0128 8C93      		st X,r24
 2235 012a DF01      		movw r26,r30
 2236 012c 1196      		adiw r26,1
 2237               	.LVL179:
 2238               	.LSM353:
 2239 012e 8091 F100 		lds r24,241
 2240 0132 8183      		std Z+1,r24
 2241 0134 FD01      		movw r30,r26
 2242 0136 3196      		adiw r30,1
 2243               	.LVL180:
 2244               	.LSM354:
 2245 0138 8091 F100 		lds r24,241
 2246 013c 1196      		adiw r26,1
 2247 013e 8C93      		st X,r24
 2248 0140 DF01      		movw r26,r30
 2249 0142 1196      		adiw r26,1
 2250               	.LVL181:
 2251               	.LSM355:
 2252 0144 8091 F100 		lds r24,241
 2253 0148 8183      		std Z+1,r24
 2254 014a FD01      		movw r30,r26
 2255 014c 3196      		adiw r30,1
 2256               	.LVL182:
 2257               	.LSM356:
 2258 014e 8091 F100 		lds r24,241
 2259 0152 1196      		adiw r26,1
 2260 0154 8C93      		st X,r24
 2261 0156 DF01      		movw r26,r30
 2262 0158 1196      		adiw r26,1
 2263               	.LVL183:
 2264               	.LSM357:
 2265 015a 8091 F100 		lds r24,241
 2266 015e 8183      		std Z+1,r24
 2267 0160 FD01      		movw r30,r26
 2268 0162 3196      		adiw r30,1
 2269               	.LVL184:
 2270               	.LSM358:
 2271 0164 8091 F100 		lds r24,241
 2272 0168 1196      		adiw r26,1
 2273 016a 8C93      		st X,r24
 2274 016c DF01      		movw r26,r30
 2275 016e 1196      		adiw r26,1
 2276               	.LVL185:
 2277               	.LSM359:
 2278 0170 8091 F100 		lds r24,241
 2279 0174 8183      		std Z+1,r24
 2280 0176 FD01      		movw r30,r26
 2281 0178 3196      		adiw r30,1
 2282               	.LVL186:
 2283               	.LSM360:
 2284 017a 8091 F100 		lds r24,241
 2285 017e 1196      		adiw r26,1
 2286 0180 8C93      		st X,r24
 2287 0182 1197      		sbiw r26,1
 2288               	.LVL187:
 2289               	.LSM361:
 2290 0184 8091 F100 		lds r24,241
 2291 0188 8183      		std Z+1,r24
 2292               	.LVL188:
 2293               	.LSM362:
 2294 018a 8091 F100 		lds r24,241
 2295 018e 8283      		std Z+2,r24
 2296               	.LVL189:
 2297               	.LSM363:
 2298 0190 8BE6      		ldi r24,lo8(107)
 2299 0192 8093 E800 		sts 232,r24
 2300               	.LSM364:
 2301 0196 2FBF      		out __SREG__,r18
 2302               	.LSM365:
 2303 0198 80E2      		ldi r24,lo8(32)
 2304 019a 0895      		ret
 2305               	.LVL190:
 2306               	.L122:
 2307               	.LSM366:
 2308 019c 8FEF      		ldi r24,lo8(-1)
 2309               	.LVL191:
 2310 019e 0895      		ret
 2311               	.LVL192:
 2312               	.L123:
 2313               	.LSM367:
 2314 01a0 80E0      		ldi r24,lo8(0)
 2315               	.LVL193:
 2316 01a2 0895      		ret
 2317               	.LVL194:
 2318               	.L124:
 2319               	.LSM368:
 2320 01a4 8FEF      		ldi r24,lo8(-1)
 2321               	.LVL195:
 2322               	.LSM369:
 2323 01a6 0895      		ret
 2324               	.LFE43:
 2326               		.section	.text.usb_rawhid_send,"ax",@progbits
 2327               	.global	usb_rawhid_send
 2329               	usb_rawhid_send:
 2330               	.LFB44:
 2331               	.LSM370:
 2332               	.LVL196:
 2333               	/* prologue: function */
 2334               	/* frame size = 0 */
 2335               	/* stack size = 0 */
 2336               	.L__stack_usage = 0
 2337               	.LSM371:
 2338 0000 2091 0000 		lds r18,usb_configuration
 2339 0004 2223      		tst r18
 2340 0006 01F4      		brne .+2
 2341 0008 00C0      		rjmp .L130
 2342               	.LSM372:
 2343 000a 2FB7      		in r18,__SREG__
 2344               	.LVL197:
 2345               	.LSM373:
 2346               	/* #APP */
 2347               	 ;  510 "usb_rawhid.c" 1
 2348 000c F894      		cli
 2349               	 ;  0 "" 2
 2350               	.LSM374:
 2351               	/* #NOAPP */
 2352 000e 6093 0000 		sts tx_timeout_count,r22
 2353               	.LSM375:
 2354 0012 31E0      		ldi r19,lo8(1)
 2355               	.L133:
 2356 0014 3093 E900 		sts 233,r19
 2357               	.LSM376:
 2358 0018 4091 E800 		lds r20,232
 2359 001c 45FD      		sbrc r20,5
 2360 001e 00C0      		rjmp .L128
 2361               	.LSM377:
 2362 0020 2FBF      		out __SREG__,r18
 2363               	.LSM378:
 2364 0022 2091 0000 		lds r18,tx_timeout_count
 2365               	.LVL198:
 2366 0026 2223      		tst r18
 2367 0028 01F4      		brne .+2
 2368 002a 00C0      		rjmp .L131
 2369               	.LSM379:
 2370 002c 2091 0000 		lds r18,usb_configuration
 2371 0030 2223      		tst r18
 2372 0032 01F4      		brne .+2
 2373 0034 00C0      		rjmp .L132
 2374               	.LSM380:
 2375 0036 2FB7      		in r18,__SREG__
 2376               	.LVL199:
 2377               	.LSM381:
 2378               	/* #APP */
 2379               	 ;  521 "usb_rawhid.c" 1
 2380 0038 F894      		cli
 2381               	 ;  0 "" 2
 2382               	/* #NOAPP */
 2383 003a 00C0      		rjmp .L133
 2384               	.L128:
 2385               	.LSM382:
 2386 003c FC01      		movw r30,r24
 2387 003e 3191      		ld r19,Z+
 2388 0040 3093 F100 		sts 241,r19
 2389               	.LVL200:
 2390               	.LSM383:
 2391 0044 DC01      		movw r26,r24
 2392 0046 1196      		adiw r26,1
 2393 0048 8C91      		ld r24,X
 2394 004a 8093 F100 		sts 241,r24
 2395 004e DF01      		movw r26,r30
 2396 0050 1196      		adiw r26,1
 2397               	.LVL201:
 2398               	.LSM384:
 2399 0052 8181      		ldd r24,Z+1
 2400 0054 8093 F100 		sts 241,r24
 2401 0058 FD01      		movw r30,r26
 2402 005a 3196      		adiw r30,1
 2403               	.LVL202:
 2404               	.LSM385:
 2405 005c 1196      		adiw r26,1
 2406 005e 8C91      		ld r24,X
 2407 0060 8093 F100 		sts 241,r24
 2408 0064 DF01      		movw r26,r30
 2409 0066 1196      		adiw r26,1
 2410               	.LVL203:
 2411               	.LSM386:
 2412 0068 8181      		ldd r24,Z+1
 2413 006a 8093 F100 		sts 241,r24
 2414 006e FD01      		movw r30,r26
 2415 0070 3196      		adiw r30,1
 2416               	.LVL204:
 2417               	.LSM387:
 2418 0072 1196      		adiw r26,1
 2419 0074 8C91      		ld r24,X
 2420 0076 8093 F100 		sts 241,r24
 2421 007a DF01      		movw r26,r30
 2422 007c 1196      		adiw r26,1
 2423               	.LVL205:
 2424               	.LSM388:
 2425 007e 8181      		ldd r24,Z+1
 2426 0080 8093 F100 		sts 241,r24
 2427 0084 FD01      		movw r30,r26
 2428 0086 3196      		adiw r30,1
 2429               	.LVL206:
 2430               	.LSM389:
 2431 0088 1196      		adiw r26,1
 2432 008a 8C91      		ld r24,X
 2433 008c 8093 F100 		sts 241,r24
 2434 0090 DF01      		movw r26,r30
 2435 0092 1196      		adiw r26,1
 2436               	.LVL207:
 2437               	.LSM390:
 2438 0094 8181      		ldd r24,Z+1
 2439 0096 8093 F100 		sts 241,r24
 2440 009a FD01      		movw r30,r26
 2441 009c 3196      		adiw r30,1
 2442               	.LVL208:
 2443               	.LSM391:
 2444 009e 1196      		adiw r26,1
 2445 00a0 8C91      		ld r24,X
 2446 00a2 8093 F100 		sts 241,r24
 2447 00a6 DF01      		movw r26,r30
 2448 00a8 1196      		adiw r26,1
 2449               	.LVL209:
 2450               	.LSM392:
 2451 00aa 8181      		ldd r24,Z+1
 2452 00ac 8093 F100 		sts 241,r24
 2453 00b0 FD01      		movw r30,r26
 2454 00b2 3196      		adiw r30,1
 2455               	.LVL210:
 2456               	.LSM393:
 2457 00b4 1196      		adiw r26,1
 2458 00b6 8C91      		ld r24,X
 2459 00b8 8093 F100 		sts 241,r24
 2460 00bc DF01      		movw r26,r30
 2461 00be 1196      		adiw r26,1
 2462               	.LVL211:
 2463               	.LSM394:
 2464 00c0 8181      		ldd r24,Z+1
 2465 00c2 8093 F100 		sts 241,r24
 2466 00c6 FD01      		movw r30,r26
 2467 00c8 3196      		adiw r30,1
 2468               	.LVL212:
 2469               	.LSM395:
 2470 00ca 1196      		adiw r26,1
 2471 00cc 8C91      		ld r24,X
 2472 00ce 8093 F100 		sts 241,r24
 2473 00d2 DF01      		movw r26,r30
 2474 00d4 1196      		adiw r26,1
 2475               	.LVL213:
 2476               	.LSM396:
 2477 00d6 8181      		ldd r24,Z+1
 2478 00d8 8093 F100 		sts 241,r24
 2479 00dc FD01      		movw r30,r26
 2480 00de 3196      		adiw r30,1
 2481               	.LVL214:
 2482               	.LSM397:
 2483 00e0 1196      		adiw r26,1
 2484 00e2 8C91      		ld r24,X
 2485 00e4 8093 F100 		sts 241,r24
 2486 00e8 DF01      		movw r26,r30
 2487 00ea 1196      		adiw r26,1
 2488               	.LVL215:
 2489               	.LSM398:
 2490 00ec 8181      		ldd r24,Z+1
 2491 00ee 8093 F100 		sts 241,r24
 2492 00f2 FD01      		movw r30,r26
 2493 00f4 3196      		adiw r30,1
 2494               	.LVL216:
 2495               	.LSM399:
 2496 00f6 1196      		adiw r26,1
 2497 00f8 8C91      		ld r24,X
 2498 00fa 8093 F100 		sts 241,r24
 2499 00fe DF01      		movw r26,r30
 2500 0100 1196      		adiw r26,1
 2501               	.LVL217:
 2502               	.LSM400:
 2503 0102 8181      		ldd r24,Z+1
 2504 0104 8093 F100 		sts 241,r24
 2505 0108 FD01      		movw r30,r26
 2506 010a 3196      		adiw r30,1
 2507               	.LVL218:
 2508               	.LSM401:
 2509 010c 1196      		adiw r26,1
 2510 010e 8C91      		ld r24,X
 2511 0110 8093 F100 		sts 241,r24
 2512 0114 DF01      		movw r26,r30
 2513 0116 1196      		adiw r26,1
 2514               	.LVL219:
 2515               	.LSM402:
 2516 0118 8181      		ldd r24,Z+1
 2517 011a 8093 F100 		sts 241,r24
 2518 011e FD01      		movw r30,r26
 2519 0120 3196      		adiw r30,1
 2520               	.LVL220:
 2521               	.LSM403:
 2522 0122 1196      		adiw r26,1
 2523 0124 8C91      		ld r24,X
 2524 0126 8093 F100 		sts 241,r24
 2525 012a DF01      		movw r26,r30
 2526 012c 1196      		adiw r26,1
 2527               	.LVL221:
 2528               	.LSM404:
 2529 012e 8181      		ldd r24,Z+1
 2530 0130 8093 F100 		sts 241,r24
 2531 0134 FD01      		movw r30,r26
 2532 0136 3196      		adiw r30,1
 2533               	.LVL222:
 2534               	.LSM405:
 2535 0138 1196      		adiw r26,1
 2536 013a 8C91      		ld r24,X
 2537 013c 8093 F100 		sts 241,r24
 2538 0140 DF01      		movw r26,r30
 2539 0142 1196      		adiw r26,1
 2540               	.LVL223:
 2541               	.LSM406:
 2542 0144 8181      		ldd r24,Z+1
 2543 0146 8093 F100 		sts 241,r24
 2544 014a FD01      		movw r30,r26
 2545 014c 3196      		adiw r30,1
 2546               	.LVL224:
 2547               	.LSM407:
 2548 014e 1196      		adiw r26,1
 2549 0150 8C91      		ld r24,X
 2550 0152 8093 F100 		sts 241,r24
 2551 0156 DF01      		movw r26,r30
 2552 0158 1196      		adiw r26,1
 2553               	.LVL225:
 2554               	.LSM408:
 2555 015a 8181      		ldd r24,Z+1
 2556 015c 8093 F100 		sts 241,r24
 2557 0160 FD01      		movw r30,r26
 2558 0162 3196      		adiw r30,1
 2559               	.LVL226:
 2560               	.LSM409:
 2561 0164 1196      		adiw r26,1
 2562 0166 8C91      		ld r24,X
 2563 0168 8093 F100 		sts 241,r24
 2564 016c DF01      		movw r26,r30
 2565 016e 1196      		adiw r26,1
 2566               	.LVL227:
 2567               	.LSM410:
 2568 0170 8181      		ldd r24,Z+1
 2569 0172 8093 F100 		sts 241,r24
 2570 0176 FD01      		movw r30,r26
 2571 0178 3196      		adiw r30,1
 2572               	.LVL228:
 2573               	.LSM411:
 2574 017a 1196      		adiw r26,1
 2575 017c 8C91      		ld r24,X
 2576 017e 1197      		sbiw r26,1
 2577 0180 8093 F100 		sts 241,r24
 2578               	.LVL229:
 2579               	.LSM412:
 2580 0184 8181      		ldd r24,Z+1
 2581 0186 8093 F100 		sts 241,r24
 2582               	.LVL230:
 2583               	.LSM413:
 2584 018a 8281      		ldd r24,Z+2
 2585 018c 8093 F100 		sts 241,r24
 2586               	.LVL231:
 2587               	.LSM414:
 2588 0190 8AE3      		ldi r24,lo8(58)
 2589 0192 8093 E800 		sts 232,r24
 2590               	.LSM415:
 2591 0196 2FBF      		out __SREG__,r18
 2592               	.LSM416:
 2593 0198 80E2      		ldi r24,lo8(32)
 2594 019a 0895      		ret
 2595               	.LVL232:
 2596               	.L130:
 2597               	.LSM417:
 2598 019c 8FEF      		ldi r24,lo8(-1)
 2599               	.LVL233:
 2600 019e 0895      		ret
 2601               	.LVL234:
 2602               	.L131:
 2603               	.LSM418:
 2604 01a0 80E0      		ldi r24,lo8(0)
 2605               	.LVL235:
 2606 01a2 0895      		ret
 2607               	.LVL236:
 2608               	.L132:
 2609               	.LSM419:
 2610 01a4 8FEF      		ldi r24,lo8(-1)
 2611               	.LVL237:
 2612               	.LSM420:
 2613 01a6 0895      		ret
 2614               	.LFE44:
 2616               		.section	.text.__vector_10,"ax",@progbits
 2617               	.global	__vector_10
 2619               	__vector_10:
 2620               	.LFB45:
 2621               	.LSM421:
 2622 0000 1F92      		push __zero_reg__
 2623 0002 0F92      		push r0
 2624 0004 0FB6      		in r0,__SREG__
 2625 0006 0F92      		push r0
 2626 0008 1124      		clr __zero_reg__
 2627 000a 8F93      		push r24
 2628 000c 9F93      		push r25
 2629               	/* prologue: Signal */
 2630               	/* frame size = 0 */
 2631               	/* stack size = 5 */
 2632               	.L__stack_usage = 5
 2633               	.LSM422:
 2634 000e 8091 E100 		lds r24,225
 2635               	.LVL238:
 2636               	.LSM423:
 2637 0012 1092 E100 		sts 225,__zero_reg__
 2638               	.LSM424:
 2639 0016 83FF      		sbrs r24,3
 2640 0018 00C0      		rjmp .L135
 2641               	.LSM425:
 2642 001a 1092 E900 		sts 233,__zero_reg__
 2643               	.LSM426:
 2644 001e 91E0      		ldi r25,lo8(1)
 2645 0020 9093 EB00 		sts 235,r25
 2646               	.LSM427:
 2647 0024 1092 EC00 		sts 236,__zero_reg__
 2648               	.LSM428:
 2649 0028 92E2      		ldi r25,lo8(34)
 2650 002a 9093 ED00 		sts 237,r25
 2651               	.LSM429:
 2652 002e 98E0      		ldi r25,lo8(8)
 2653 0030 9093 F000 		sts 240,r25
 2654               	.LSM430:
 2655 0034 1092 0000 		sts usb_configuration,__zero_reg__
 2656               	.L135:
 2657               	.LSM431:
 2658 0038 82FF      		sbrs r24,2
 2659 003a 00C0      		rjmp .L134
 2660               	.LSM432:
 2661 003c 8091 0000 		lds r24,usb_configuration
 2662               	.LVL239:
 2663 0040 8823      		tst r24
 2664 0042 01F0      		breq .L134
 2665               	.LSM433:
 2666 0044 8091 0000 		lds r24,rx_timeout_count
 2667               	.LVL240:
 2668               	.LSM434:
 2669 0048 8823      		tst r24
 2670 004a 01F0      		breq .L137
 2671               	.LSM435:
 2672 004c 8150      		subi r24,lo8(-(-1))
 2673               	.LVL241:
 2674 004e 8093 0000 		sts rx_timeout_count,r24
 2675               	.L137:
 2676               	.LSM436:
 2677 0052 8091 0000 		lds r24,tx_timeout_count
 2678               	.LVL242:
 2679               	.LSM437:
 2680 0056 8823      		tst r24
 2681 0058 01F0      		breq .L134
 2682               	.LSM438:
 2683 005a 8150      		subi r24,lo8(-(-1))
 2684               	.LVL243:
 2685 005c 8093 0000 		sts tx_timeout_count,r24
 2686               	.LVL244:
 2687               	.L134:
 2688               	/* epilogue start */
 2689               	.LSM439:
 2690 0060 9F91      		pop r25
 2691 0062 8F91      		pop r24
 2692 0064 0F90      		pop r0
 2693 0066 0FBE      		out __SREG__,r0
 2694 0068 0F90      		pop r0
 2695 006a 1F90      		pop __zero_reg__
 2696 006c 1895      		reti
 2697               	.LFE45:
 2699               		.section	.text.__vector_11,"ax",@progbits
 2700               	.global	__vector_11
 2702               	__vector_11:
 2703               	.LFB50:
 2704               	.LSM440:
 2705 0000 1F92      		push __zero_reg__
 2706 0002 0F92      		push r0
 2707 0004 0FB6      		in r0,__SREG__
 2708 0006 0F92      		push r0
 2709 0008 0BB6      		in r0,91-32
 2710 000a 0F92      		push r0
 2711 000c 1124      		clr __zero_reg__
 2712 000e EF92      		push r14
 2713 0010 FF92      		push r15
 2714 0012 0F93      		push r16
 2715 0014 1F93      		push r17
 2716 0016 2F93      		push r18
 2717 0018 3F93      		push r19
 2718 001a 4F93      		push r20
 2719 001c 5F93      		push r21
 2720 001e 6F93      		push r22
 2721 0020 7F93      		push r23
 2722 0022 8F93      		push r24
 2723 0024 9F93      		push r25
 2724 0026 AF93      		push r26
 2725 0028 BF93      		push r27
 2726 002a EF93      		push r30
 2727 002c FF93      		push r31
 2728 002e DF93      		push r29
 2729 0030 CF93      		push r28
 2730 0032 0F92      		push __tmp_reg__
 2731 0034 CDB7      		in r28,__SP_L__
 2732 0036 DEB7      		in r29,__SP_H__
 2733               	/* prologue: Signal */
 2734               	/* frame size = 1 */
 2735               	/* stack size = 23 */
 2736               	.L__stack_usage = 23
 2737               	.LSM441:
 2738 0038 1092 E900 		sts 233,__zero_reg__
 2739               	.LSM442:
 2740 003c 8091 E800 		lds r24,232
 2741               	.LVL245:
 2742               	.LSM443:
 2743 0040 83FF      		sbrs r24,3
 2744 0042 00C0      		rjmp .L139
 2745               	.LSM444:
 2746 0044 2091 F100 		lds r18,241
 2747               	.LVL246:
 2748               	.LSM445:
 2749 0048 3091 F100 		lds r19,241
 2750               	.LVL247:
 2751               	.LSM446:
 2752 004c 0091 F100 		lds r16,241
 2753 0050 10E0      		ldi r17,lo8(0)
 2754               	.LVL248:
 2755               	.LSM447:
 2756 0052 4091 F100 		lds r20,241
 2757 0056 942F      		mov r25,r20
 2758 0058 80E0      		ldi r24,lo8(0)
 2759               	.LVL249:
 2760 005a 082B      		or r16,r24
 2761 005c 192B      		or r17,r25
 2762               	.LVL250:
 2763               	.LSM448:
 2764 005e E090 F100 		lds r14,241
 2765 0062 FF24      		clr r15
 2766               	.LVL251:
 2767               	.LSM449:
 2768 0064 4091 F100 		lds r20,241
 2769 0068 942F      		mov r25,r20
 2770 006a 80E0      		ldi r24,lo8(0)
 2771 006c E82A      		or r14,r24
 2772 006e F92A      		or r15,r25
 2773               	.LVL252:
 2774               	.LSM450:
 2775 0070 6091 F100 		lds r22,241
 2776               	.LVL253:
 2777               	.LSM451:
 2778 0074 A091 F100 		lds r26,241
 2779               	.LVL254:
 2780               	.LSM452:
 2781 0078 82EF      		ldi r24,lo8(-14)
 2782 007a 8093 E800 		sts 232,r24
 2783               	.LSM453:
 2784 007e 3630      		cpi r19,lo8(6)
 2785 0080 01F0      		breq .+2
 2786 0082 00C0      		rjmp .L140
 2787               	.LVL255:
 2788               	.LSM454:
 2789 0084 80E0      		ldi r24,lo8(descriptor_list+7)
 2790 0086 90E0      		ldi r25,hi8(descriptor_list+7)
 2791 0088 9C01      		movw r18,r24
 2792               	.LVL256:
 2793 008a 2550      		subi r18,lo8(-(-5))
 2794 008c 3040      		sbci r19,hi8(-(-5))
 2795               	.LVL257:
 2796               	.L141:
 2797               	.LSM455:
 2798 008e FC01      		movw r30,r24
 2799 0090 3797      		sbiw r30,7
 2800               	.LVL258:
 2801               	.LBB89:
 2802               	.LSM456:
 2803               	/* #APP */
 2804               	 ;  824 "usb_rawhid.c" 1
 2805 0092 4591      		lpm r20, Z+
 2806 0094 5491      		lpm r21, Z
 2807               		
 2808               	 ;  0 "" 2
 2809               	.LVL259:
 2810               	/* #NOAPP */
 2811               	.LBE89:
 2812               	.LSM457:
 2813 0096 4017      		cp r20,r16
 2814 0098 5107      		cpc r21,r17
 2815 009a 01F4      		brne .L143
 2816               	.LVL260:
 2817               	.LBB90:
 2818               	.LSM458:
 2819 009c F901      		movw r30,r18
 2820               	/* #APP */
 2821               	 ;  830 "usb_rawhid.c" 1
 2822 009e 4591      		lpm r20, Z+
 2823 00a0 5491      		lpm r21, Z
 2824               		
 2825               	 ;  0 "" 2
 2826               	.LVL261:
 2827               	/* #NOAPP */
 2828               	.LBE90:
 2829               	.LSM459:
 2830 00a2 4E15      		cp r20,r14
 2831 00a4 5F05      		cpc r21,r15
 2832 00a6 01F4      		brne .L143
 2833               	.LSM460:
 2834 00a8 2E5F      		subi r18,lo8(-(2))
 2835 00aa 3F4F      		sbci r19,hi8(-(2))
 2836               	.LVL262:
 2837               	.LBB91:
 2838               	.LSM461:
 2839 00ac F901      		movw r30,r18
 2840               	/* #APP */
 2841               	 ;  836 "usb_rawhid.c" 1
 2842 00ae 8591      		lpm r24, Z+
 2843 00b0 9491      		lpm r25, Z
 2844               		
 2845               	 ;  0 "" 2
 2846               	.LVL263:
 2847               	/* #NOAPP */
 2848               	.LBE91:
 2849               	.LSM462:
 2850 00b2 2E5F      		subi r18,lo8(-(2))
 2851 00b4 3F4F      		sbci r19,hi8(-(2))
 2852               	.LVL264:
 2853               	.LBB92:
 2854               	.LSM463:
 2855 00b6 F901      		movw r30,r18
 2856               	/* #APP */
 2857               	 ;  838 "usb_rawhid.c" 1
 2858 00b8 2491      		lpm r18, Z
 2859               		
 2860               	 ;  0 "" 2
 2861               	.LVL265:
 2862               	/* #NOAPP */
 2863               	.LBE92:
 2864               	.LSM464:
 2865 00ba 462F      		mov r20,r22
 2866               	.LVL266:
 2867 00bc 50E0      		ldi r21,lo8(0)
 2868               	.LSM465:
 2869 00be 7A2F      		mov r23,r26
 2870 00c0 60E0      		ldi r22,lo8(0)
 2871               	.LVL267:
 2872 00c2 462B      		or r20,r22
 2873 00c4 572B      		or r21,r23
 2874               	.LVL268:
 2875               	.LSM466:
 2876 00c6 4F3F      		cpi r20,255
 2877 00c8 5105      		cpc r21,__zero_reg__
 2878 00ca 01F0      		breq .L144
 2879 00cc 00F0      		brlo .L144
 2880 00ce 4FEF      		ldi r20,lo8(255)
 2881 00d0 50E0      		ldi r21,hi8(255)
 2882               	.L144:
 2883               	.LVL269:
 2884 00d2 4217      		cp r20,r18
 2885 00d4 00F4      		brsh .L176
 2886 00d6 242F      		mov r18,r20
 2887               	.LVL270:
 2888 00d8 00C0      		rjmp .L176
 2889               	.LVL271:
 2890               	.L143:
 2891 00da 0796      		adiw r24,7
 2892 00dc 295F      		subi r18,lo8(-(7))
 2893 00de 3F4F      		sbci r19,hi8(-(7))
 2894               	.LSM467:
 2895 00e0 F0E0      		ldi r31,hi8(descriptor_list+56)
 2896 00e2 8030      		cpi r24,lo8(descriptor_list+56)
 2897 00e4 9F07      		cpc r25,r31
 2898 00e6 01F4      		brne .L141
 2899 00e8 00C0      		rjmp .L139
 2900               	.LVL272:
 2901               	.L176:
 2902               	.LBB93:
 2903               	.LBB94:
 2904               	.LSM468:
 2905 00ea AEEF      		ldi r26,lo8(-2)
 2906               	.LVL273:
 2907               	.L182:
 2908               	.LBE94:
 2909               	.LBE93:
 2910               	.LSM469:
 2911 00ec 4091 E800 		lds r20,232
 2912               	.LVL274:
 2913               	.LSM470:
 2914 00f0 50E0      		ldi r21,lo8(0)
 2915 00f2 BA01      		movw r22,r20
 2916 00f4 6570      		andi r22,lo8(5)
 2917 00f6 7070      		andi r23,hi8(5)
 2918 00f8 6115      		cp r22,__zero_reg__
 2919 00fa 7105      		cpc r23,__zero_reg__
 2920 00fc 01F0      		breq .L182
 2921               	.LSM471:
 2922 00fe 42FD      		sbrc r20,2
 2923 0100 00C0      		rjmp .L138
 2924               	.LSM472:
 2925 0102 322F      		mov r19,r18
 2926 0104 2132      		cpi r18,lo8(33)
 2927 0106 00F0      		brlo .L149
 2928 0108 30E2      		ldi r19,lo8(32)
 2929               	.L149:
 2930               	.LVL275:
 2931               	.LSM473:
 2932 010a AC01      		movw r20,r24
 2933 010c 632F      		mov r22,r19
 2934 010e 00C0      		rjmp .L150
 2935               	.LVL276:
 2936               	.L151:
 2937               	.LSM474:
 2938 0110 FA01      		movw r30,r20
 2939               	.LVL277:
 2940               	.LBB96:
 2941               	.LSM475:
 2942 0112 4F5F      		subi r20,lo8(-(1))
 2943 0114 5F4F      		sbci r21,hi8(-(1))
 2944               	.LVL278:
 2945               	/* #APP */
 2946               	 ;  852 "usb_rawhid.c" 1
 2947 0116 E491      		lpm r30, Z
 2948               		
 2949               	 ;  0 "" 2
 2950               	.LVL279:
 2951               	/* #NOAPP */
 2952               	.LBE96:
 2953 0118 E093 F100 		sts 241,r30
 2954               	.LSM476:
 2955 011c 6150      		subi r22,lo8(-(-1))
 2956               	.LVL280:
 2957               	.L150:
 2958               	.LSM477:
 2959 011e 6623      		tst r22
 2960 0120 01F4      		brne .L151
 2961               	.LSM478:
 2962 0122 830F      		add r24,r19
 2963 0124 911D      		adc r25,__zero_reg__
 2964               	.LSM479:
 2965 0126 231B      		sub r18,r19
 2966               	.LVL281:
 2967               	.LBB97:
 2968               	.LBB95:
 2969               	.LSM480:
 2970 0128 A093 E800 		sts 232,r26
 2971               	.LBE95:
 2972               	.LBE97:
 2973               	.LSM481:
 2974 012c 2223      		tst r18
 2975 012e 01F4      		brne .L182
 2976               	.LSM482:
 2977 0130 3032      		cpi r19,lo8(32)
 2978 0132 01F0      		breq .L182
 2979 0134 00C0      		rjmp .L138
 2980               	.LVL282:
 2981               	.L140:
 2982               	.LSM483:
 2983 0136 3530      		cpi r19,lo8(5)
 2984 0138 01F4      		brne .L153
 2985               	.LBB98:
 2986               	.LBB99:
 2987               	.LSM484:
 2988 013a 8EEF      		ldi r24,lo8(-2)
 2989 013c 8093 E800 		sts 232,r24
 2990               	.LBE99:
 2991               	.LBE98:
 2992               	.LSM485:
 2993 0140 0E94 0000 		call usb_wait_in_ready
 2994               	.LVL283:
 2995               	.LSM486:
 2996 0144 0068      		ori r16,lo8(-128)
 2997               	.LVL284:
 2998 0146 0093 E300 		sts 227,r16
 2999               	.LSM487:
 3000 014a 00C0      		rjmp .L138
 3001               	.LVL285:
 3002               	.L153:
 3003               	.LSM488:
 3004 014c 3930      		cpi r19,lo8(9)
 3005 014e 01F4      		brne .L154
 3006               	.LSM489:
 3007 0150 2223      		tst r18
 3008 0152 01F0      		breq .+2
 3009 0154 00C0      		rjmp .L159
 3010               	.LSM490:
 3011 0156 0093 0000 		sts usb_configuration,r16
 3012               	.LBB100:
 3013               	.LBB101:
 3014               	.LSM491:
 3015 015a 8EEF      		ldi r24,lo8(-2)
 3016 015c 8093 E800 		sts 232,r24
 3017               	.LVL286:
 3018               	.LSM492:
 3019 0160 41E0      		ldi r20,lo8(1)
 3020               	.LSM493:
 3021 0162 80E0      		ldi r24,lo8(endpoint_config_table)
 3022 0164 90E0      		ldi r25,hi8(endpoint_config_table)
 3023               	.LVL287:
 3024               	.L157:
 3025               	.LBE101:
 3026               	.LBE100:
 3027               	.LSM494:
 3028 0166 4093 E900 		sts 233,r20
 3029               	.LBB102:
 3030               	.LSM495:
 3031 016a FC01      		movw r30,r24
 3032               	.LVL288:
 3033 016c 0196      		adiw r24,1
 3034               	.LVL289:
 3035               	/* #APP */
 3036               	 ;  871 "usb_rawhid.c" 1
 3037 016e E491      		lpm r30, Z
 3038               		
 3039               	 ;  0 "" 2
 3040               	.LVL290:
 3041               	/* #NOAPP */
 3042               	.LBE102:
 3043               	.LSM496:
 3044 0170 E093 EB00 		sts 235,r30
 3045               	.LSM497:
 3046 0174 EE23      		tst r30
 3047 0176 01F0      		breq .L156
 3048               	.LVL291:
 3049               	.LBB103:
 3050               	.LSM498:
 3051 0178 9C01      		movw r18,r24
 3052 017a 2F5F      		subi r18,lo8(-(1))
 3053 017c 3F4F      		sbci r19,hi8(-(1))
 3054               	.LVL292:
 3055 017e FC01      		movw r30,r24
 3056               	.LVL293:
 3057               	/* #APP */
 3058               	 ;  874 "usb_rawhid.c" 1
 3059 0180 8491      		lpm r24, Z
 3060               		
 3061               	 ;  0 "" 2
 3062               	.LVL294:
 3063               	/* #NOAPP */
 3064               	.LBE103:
 3065 0182 8093 EC00 		sts 236,r24
 3066               	.LVL295:
 3067               	.LBB104:
 3068               	.LSM499:
 3069 0186 C901      		movw r24,r18
 3070               	.LVL296:
 3071 0188 0196      		adiw r24,1
 3072               	.LVL297:
 3073 018a F901      		movw r30,r18
 3074               	.LVL298:
 3075               	/* #APP */
 3076               	 ;  875 "usb_rawhid.c" 1
 3077 018c 2491      		lpm r18, Z
 3078               		
 3079               	 ;  0 "" 2
 3080               	.LVL299:
 3081               	/* #NOAPP */
 3082               	.LBE104:
 3083 018e 2093 ED00 		sts 237,r18
 3084               	.LVL300:
 3085               	.L156:
 3086               	.LSM500:
 3087 0192 4F5F      		subi r20,lo8(-(1))
 3088               	.LVL301:
 3089 0194 4530      		cpi r20,lo8(5)
 3090 0196 01F4      		brne .L157
 3091               	.LSM501:
 3092 0198 8EE1      		ldi r24,lo8(30)
 3093               	.LVL302:
 3094 019a 00C0      		rjmp .L184
 3095               	.LVL303:
 3096               	.L154:
 3097               	.LSM502:
 3098 019c 3830      		cpi r19,lo8(8)
 3099 019e 01F4      		brne .L158
 3100               	.LSM503:
 3101 01a0 2038      		cpi r18,lo8(-128)
 3102 01a2 01F0      		breq .+2
 3103 01a4 00C0      		rjmp .L159
 3104               	.LSM504:
 3105 01a6 0E94 0000 		call usb_wait_in_ready
 3106               	.LVL304:
 3107               	.LSM505:
 3108 01aa 8091 0000 		lds r24,usb_configuration
 3109 01ae 8093 F100 		sts 241,r24
 3110 01b2 00C0      		rjmp .L185
 3111               	.LVL305:
 3112               	.L158:
 3113               	.LSM506:
 3114 01b4 3323      		tst r19
 3115 01b6 01F4      		brne .L155
 3116               	.LSM507:
 3117 01b8 2983      		std Y+1,r18
 3118 01ba 0E94 0000 		call usb_wait_in_ready
 3119               	.LVL306:
 3120               	.LSM508:
 3121 01be 2981      		ldd r18,Y+1
 3122 01c0 2238      		cpi r18,lo8(-126)
 3123 01c2 01F4      		brne .L172
 3124               	.LSM509:
 3125 01c4 E092 E900 		sts 233,r14
 3126               	.LSM510:
 3127 01c8 9091 EB00 		lds r25,235
 3128               	.LSM511:
 3129 01cc 81E0      		ldi r24,lo8(1)
 3130 01ce 95FF      		sbrs r25,5
 3131 01d0 80E0      		ldi r24,lo8(0)
 3132               	.L161:
 3133               	.LVL307:
 3134               	.LSM512:
 3135 01d2 1092 E900 		sts 233,__zero_reg__
 3136 01d6 00C0      		rjmp .L160
 3137               	.LVL308:
 3138               	.L172:
 3139               	.LSM513:
 3140 01d8 80E0      		ldi r24,lo8(0)
 3141               	.LVL309:
 3142               	.L160:
 3143               	.LSM514:
 3144 01da 8093 F100 		sts 241,r24
 3145               	.LSM515:
 3146 01de 1092 F100 		sts 241,__zero_reg__
 3147 01e2 00C0      		rjmp .L185
 3148               	.LVL310:
 3149               	.L155:
 3150               	.LSM516:
 3151 01e4 3130      		cpi r19,lo8(1)
 3152 01e6 01F0      		breq .L162
 3153               	.LSM517:
 3154 01e8 3330      		cpi r19,lo8(3)
 3155 01ea 01F4      		brne .L159
 3156               	.L162:
 3157               	.LSM518:
 3158 01ec 2230      		cpi r18,lo8(2)
 3159 01ee 01F4      		brne .L159
 3160               	.LSM519:
 3161 01f0 0115      		cp r16,__zero_reg__
 3162 01f2 1105      		cpc r17,__zero_reg__
 3163 01f4 01F4      		brne .L159
 3164               	.LSM520:
 3165 01f6 4E2D      		mov r20,r14
 3166 01f8 4F77      		andi r20,lo8(127)
 3167               	.LVL311:
 3168               	.LSM521:
 3169 01fa 842F      		mov r24,r20
 3170 01fc 8150      		subi r24,lo8(-(-1))
 3171 01fe 8430      		cpi r24,lo8(4)
 3172 0200 00F4      		brsh .L159
 3173               	.LBB105:
 3174               	.LBB106:
 3175               	.LSM522:
 3176 0202 8EEF      		ldi r24,lo8(-2)
 3177 0204 8093 E800 		sts 232,r24
 3178               	.LBE106:
 3179               	.LBE105:
 3180               	.LSM523:
 3181 0208 4093 E900 		sts 233,r20
 3182               	.LSM524:
 3183 020c 3330      		cpi r19,lo8(3)
 3184 020e 01F4      		brne .+2
 3185 0210 00C0      		rjmp .L139
 3186               	.L163:
 3187               	.LSM525:
 3188 0212 89E1      		ldi r24,lo8(25)
 3189 0214 8093 EB00 		sts 235,r24
 3190               	.LSM526:
 3191 0218 81E0      		ldi r24,lo8(1)
 3192 021a 90E0      		ldi r25,hi8(1)
 3193 021c 00C0      		rjmp 2f
 3194 021e 880F      	1:	lsl r24
 3195 0220 991F      		rol r25
 3196 0222 4A95      	2:	dec r20
 3197 0224 02F4      		brpl 1b
 3198               	.LVL312:
 3199               	.L184:
 3200 0226 8093 EA00 		sts 234,r24
 3201               	.LSM527:
 3202 022a 1092 EA00 		sts 234,__zero_reg__
 3203 022e 00C0      		rjmp .L138
 3204               	.LVL313:
 3205               	.L159:
 3206               	.LSM528:
 3207 0230 E114      		cp r14,__zero_reg__
 3208 0232 F104      		cpc r15,__zero_reg__
 3209 0234 01F4      		brne .L139
 3210               	.LSM529:
 3211 0236 213A      		cpi r18,lo8(-95)
 3212 0238 01F4      		brne .L164
 3213               	.LSM530:
 3214 023a 3130      		cpi r19,lo8(1)
 3215 023c 01F4      		brne .L139
 3216 023e 40E2      		ldi r20,lo8(32)
 3217               	.LBB107:
 3218               	.LBB108:
 3219               	.LSM531:
 3220 0240 5EEF      		ldi r21,lo8(-2)
 3221               	.LVL314:
 3222               	.L183:
 3223               	.LBE108:
 3224               	.LBE107:
 3225               	.LSM532:
 3226 0242 8091 E800 		lds r24,232
 3227               	.LVL315:
 3228               	.LSM533:
 3229 0246 90E0      		ldi r25,lo8(0)
 3230 0248 9C01      		movw r18,r24
 3231 024a 2570      		andi r18,lo8(5)
 3232 024c 3070      		andi r19,hi8(5)
 3233 024e 2115      		cp r18,__zero_reg__
 3234 0250 3105      		cpc r19,__zero_reg__
 3235 0252 01F0      		breq .L183
 3236               	.LSM534:
 3237 0254 82FD      		sbrc r24,2
 3238 0256 00C0      		rjmp .L138
 3239               	.LSM535:
 3240 0258 842F      		mov r24,r20
 3241               	.LVL316:
 3242 025a 4132      		cpi r20,lo8(33)
 3243 025c 00F0      		brlo .L167
 3244 025e 80E2      		ldi r24,lo8(32)
 3245               	.L167:
 3246               	.LVL317:
 3247               	.LSM536:
 3248 0260 982F      		mov r25,r24
 3249 0262 00C0      		rjmp .L168
 3250               	.LVL318:
 3251               	.L169:
 3252               	.LSM537:
 3253 0264 1092 F100 		sts 241,__zero_reg__
 3254               	.LSM538:
 3255 0268 9150      		subi r25,lo8(-(-1))
 3256               	.LVL319:
 3257               	.L168:
 3258               	.LSM539:
 3259 026a 9923      		tst r25
 3260 026c 01F4      		brne .L169
 3261               	.LSM540:
 3262 026e 481B      		sub r20,r24
 3263               	.LVL320:
 3264               	.LBB110:
 3265               	.LBB109:
 3266               	.LSM541:
 3267 0270 5093 E800 		sts 232,r21
 3268               	.LBE109:
 3269               	.LBE110:
 3270               	.LSM542:
 3271 0274 4423      		tst r20
 3272 0276 01F4      		brne .L183
 3273               	.LSM543:
 3274 0278 8032      		cpi r24,lo8(32)
 3275 027a 01F0      		breq .L183
 3276 027c 00C0      		rjmp .L138
 3277               	.LVL321:
 3278               	.L164:
 3279               	.LSM544:
 3280 027e 2132      		cpi r18,lo8(33)
 3281 0280 01F4      		brne .L139
 3282               	.LSM545:
 3283 0282 3930      		cpi r19,lo8(9)
 3284 0284 01F4      		brne .L139
 3285               	.L177:
 3286               	.LBB111:
 3287               	.LBB112:
 3288               	.LSM546:
 3289 0286 8091 E800 		lds r24,232
 3290 028a 82FF      		sbrs r24,2
 3291 028c 00C0      		rjmp .L177
 3292               	.LBE112:
 3293               	.LBE111:
 3294               	.LBB113:
 3295               	.LBB114:
 3296               	.LSM547:
 3297 028e 8BEF      		ldi r24,lo8(-5)
 3298 0290 8093 E800 		sts 232,r24
 3299               	.LVL322:
 3300               	.LBE114:
 3301               	.LBE113:
 3302               	.LSM548:
 3303 0294 0E94 0000 		call usb_wait_in_ready
 3304               	.LVL323:
 3305               	.L185:
 3306               	.LBB115:
 3307               	.LBB116:
 3308               	.LSM549:
 3309 0298 8EEF      		ldi r24,lo8(-2)
 3310 029a 8093 E800 		sts 232,r24
 3311 029e 00C0      		rjmp .L138
 3312               	.LVL324:
 3313               	.L139:
 3314               	.LBE116:
 3315               	.LBE115:
 3316               	.LSM550:
 3317 02a0 81E2      		ldi r24,lo8(33)
 3318 02a2 8093 EB00 		sts 235,r24
 3319               	.L138:
 3320               	/* epilogue start */
 3321               	.LSM551:
 3322 02a6 0F90      		pop __tmp_reg__
 3323 02a8 CF91      		pop r28
 3324 02aa DF91      		pop r29
 3325 02ac FF91      		pop r31
 3326 02ae EF91      		pop r30
 3327 02b0 BF91      		pop r27
 3328 02b2 AF91      		pop r26
 3329 02b4 9F91      		pop r25
 3330 02b6 8F91      		pop r24
 3331 02b8 7F91      		pop r23
 3332 02ba 6F91      		pop r22
 3333 02bc 5F91      		pop r21
 3334 02be 4F91      		pop r20
 3335 02c0 3F91      		pop r19
 3336 02c2 2F91      		pop r18
 3337 02c4 1F91      		pop r17
 3338 02c6 0F91      		pop r16
 3339 02c8 FF90      		pop r15
 3340 02ca EF90      		pop r14
 3341 02cc 0F90      		pop r0
 3342 02ce 0BBE      		out 91-32,r0
 3343 02d0 0F90      		pop r0
 3344 02d2 0FBE      		out __SREG__,r0
 3345 02d4 0F90      		pop r0
 3346 02d6 1F90      		pop __zero_reg__
 3347 02d8 1895      		reti
 3348               	.LFE50:
 3350               		.section	.text.slaveinit,"ax",@progbits
 3351               	.global	slaveinit
 3353               	slaveinit:
 3354               	.LFB51:
 3355               	.LSM552:
 3356               	/* prologue: function */
 3357               	/* frame size = 0 */
 3358               	/* stack size = 0 */
 3359               	.L__stack_usage = 0
 3360               	.LSM553:
 3361 0000 389A      		sbi 39-32,0
 3362               	.LSM554:
 3363 0002 409A      		sbi 40-32,0
 3364               	.LSM555:
 3365 0004 399A      		sbi 39-32,1
 3366               	.LSM556:
 3367 0006 419A      		sbi 40-32,1
 3368               	.LSM557:
 3369 0008 3A9A      		sbi 39-32,2
 3370               	.LSM558:
 3371 000a 429A      		sbi 40-32,2
 3372               	.LSM559:
 3373 000c 3B9A      		sbi 39-32,3
 3374               	.LSM560:
 3375 000e 439A      		sbi 40-32,3
 3376               	.LSM561:
 3377 0010 3C9A      		sbi 39-32,4
 3378               	.LSM562:
 3379 0012 449A      		sbi 40-32,4
 3380               	.LSM563:
 3381 0014 3D9A      		sbi 39-32,5
 3382               	.LSM564:
 3383 0016 459A      		sbi 40-32,5
 3384               	.LSM565:
 3385 0018 209A      		sbi 36-32,0
 3386               	.LSM566:
 3387 001a 289A      		sbi 37-32,0
 3388               	.LSM567:
 3389 001c 219A      		sbi 36-32,1
 3390               	.LSM568:
 3391 001e 419A      		sbi 40-32,1
 3392               	.LSM569:
 3393 0020 229A      		sbi 36-32,2
 3394               	.LSM570:
 3395 0022 2A9A      		sbi 37-32,2
 3396               	.LSM571:
 3397 0024 239A      		sbi 36-32,3
 3398               	.LSM572:
 3399 0026 2B9A      		sbi 37-32,3
 3400               	.LSM573:
 3401 0028 249A      		sbi 36-32,4
 3402               	.LSM574:
 3403 002a 2C9A      		sbi 37-32,4
 3404               	.LSM575:
 3405 002c 259A      		sbi 36-32,5
 3406               	.LSM576:
 3407 002e 2D9A      		sbi 37-32,5
 3408               	.LSM577:
 3409 0030 8098      		cbi 48-32,0
 3410               	.LSM578:
 3411 0032 889A      		sbi 49-32,0
 3412               	.LSM579:
 3413 0034 859A      		sbi 48-32,5
 3414               	.LSM580:
 3415 0036 869A      		sbi 48-32,6
 3416               	.LSM581:
 3417 0038 879A      		sbi 48-32,7
 3418               	.LSM582:
 3419 003a 4698      		cbi 40-32,6
 3420               	.LSM583:
 3421 003c 469A      		sbi 40-32,6
 3422               	.LSM584:
 3423 003e 4798      		cbi 40-32,7
 3424               	.LSM585:
 3425 0040 479A      		sbi 40-32,7
 3426               	.LSM586:
 3427 0042 2698      		cbi 36-32,6
 3428               	.LSM587:
 3429 0044 2E9A      		sbi 37-32,6
 3430               	.LSM588:
 3431 0046 2798      		cbi 36-32,7
 3432               	.LSM589:
 3433 0048 2F9A      		sbi 37-32,7
 3434               	.LSM590:
 3435 004a 849A      		sbi 48-32,4
 3436               	.LSM591:
 3437 004c 8C9A      		sbi 49-32,4
 3438               	.LSM592:
 3439 004e 579A      		sbi 42-32,7
 3440               	.LSM593:
 3441 0050 5F98      		cbi 43-32,7
 3442               	.LSM594:
 3443 0052 549A      		sbi 42-32,4
 3444               	.LSM595:
 3445 0054 5C98      		cbi 43-32,4
 3446               	/* epilogue start */
 3447               	.LSM596:
 3448 0056 0895      		ret
 3449               	.LFE51:
 3451               		.section	.text.delay_ms,"ax",@progbits
 3452               	.global	delay_ms
 3454               	delay_ms:
 3455               	.LFB52:
 3456               	.LSM597:
 3457               	.LVL325:
 3458               	/* prologue: function */
 3459               	/* frame size = 0 */
 3460               	/* stack size = 0 */
 3461               	.L__stack_usage = 0
 3462               	.LSM598:
 3463 0000 00C0      		rjmp .L188
 3464               	.L189:
 3465               	.LVL326:
 3466               	.LBB117:
 3467               	.LBB118:
 3468               	.LSM599:
 3469 0002 EFEF      		 ldi r30,lo8(3839)
 3470 0004 FEE0      	    ldi r31,hi8(3839)
 3471 0006 3197      	    1:sbiw r30,1
 3472 0008 01F4      	    brne 1b
 3473 000a 00C0      		rjmp .
 3474 000c 0000      		nop
 3475               	.LBE118:
 3476               	.LBE117:
 3477               	.LSM600:
 3478 000e 0197      		sbiw r24,1
 3479               	.LVL327:
 3480               	.L188:
 3481               	.LSM601:
 3482 0010 0097      		sbiw r24,0
 3483 0012 01F4      		brne .L189
 3484               	/* epilogue start */
 3485               	.LSM602:
 3486 0014 0895      		ret
 3487               	.LFE52:
 3489               		.section	.text.timer0,"ax",@progbits
 3490               	.global	timer0
 3492               	timer0:
 3493               	.LFB53:
 3494               	.LSM603:
 3495               	/* prologue: function */
 3496               	/* frame size = 0 */
 3497               	/* stack size = 0 */
 3498               	.L__stack_usage = 0
 3499               	.LSM604:
 3500 0000 85B5      		in r24,69-32
 3501 0002 8460      		ori r24,lo8(4)
 3502 0004 85BD      		out 69-32,r24
 3503               	.LSM605:
 3504 0006 85B5      		in r24,69-32
 3505 0008 8160      		ori r24,lo8(1)
 3506 000a 85BD      		out 69-32,r24
 3507               	.LSM606:
 3508 000c 82E0      		ldi r24,lo8(2)
 3509 000e 87BD      		out 71-32,r24
 3510               	.LSM607:
 3511 0010 EEE6      		ldi r30,lo8(110)
 3512 0012 F0E0      		ldi r31,hi8(110)
 3513 0014 8081      		ld r24,Z
 3514 0016 8160      		ori r24,lo8(1)
 3515 0018 8083      		st Z,r24
 3516               	.LSM608:
 3517 001a 80E4      		ldi r24,lo8(64)
 3518 001c 86BD      		out 70-32,r24
 3519               	/* epilogue start */
 3520               	.LSM609:
 3521 001e 0895      		ret
 3522               	.LFE53:
 3524               		.section	.text.__vector_15,"ax",@progbits
 3525               	.global	__vector_15
 3527               	__vector_15:
 3528               	.LFB54:
 3529               	.LSM610:
 3530 0000 1F92      		push __zero_reg__
 3531 0002 0F92      		push r0
 3532 0004 0FB6      		in r0,__SREG__
 3533 0006 0F92      		push r0
 3534 0008 1124      		clr __zero_reg__
 3535 000a 8F93      		push r24
 3536 000c 9F93      		push r25
 3537               	/* prologue: Signal */
 3538               	/* frame size = 0 */
 3539               	/* stack size = 5 */
 3540               	.L__stack_usage = 5
 3541               	.LSM611:
 3542 000e 8091 0000 		lds r24,timer2Counter
 3543 0012 9091 0000 		lds r25,timer2Counter+1
 3544 0016 0196      		adiw r24,1
 3545 0018 9093 0000 		sts timer2Counter+1,r25
 3546 001c 8093 0000 		sts timer2Counter,r24
 3547               	.LSM612:
 3548 0020 8091 0000 		lds r24,timer2Counter
 3549 0024 9091 0000 		lds r25,timer2Counter+1
 3550 0028 8E30      		cpi r24,14
 3551 002a 9105      		cpc r25,__zero_reg__
 3552 002c 00F0      		brlo .L192
 3553               	.LSM613:
 3554 002e 8091 0000 		lds r24,CounterA
 3555 0032 9091 0000 		lds r25,CounterA+1
 3556 0036 0196      		adiw r24,1
 3557 0038 9093 0000 		sts CounterA+1,r25
 3558 003c 8093 0000 		sts CounterA,r24
 3559               	.LSM614:
 3560 0040 8091 0000 		lds r24,CounterB
 3561 0044 9091 0000 		lds r25,CounterB+1
 3562 0048 0196      		adiw r24,1
 3563 004a 9093 0000 		sts CounterB+1,r25
 3564 004e 8093 0000 		sts CounterB,r24
 3565               	.LSM615:
 3566 0052 8091 0000 		lds r24,CounterC
 3567 0056 9091 0000 		lds r25,CounterC+1
 3568 005a 0196      		adiw r24,1
 3569 005c 9093 0000 		sts CounterC+1,r25
 3570 0060 8093 0000 		sts CounterC,r24
 3571               	.LSM616:
 3572 0064 8091 0000 		lds r24,CounterD
 3573 0068 9091 0000 		lds r25,CounterD+1
 3574 006c 0196      		adiw r24,1
 3575 006e 9093 0000 		sts CounterD+1,r25
 3576 0072 8093 0000 		sts CounterD,r24
 3577               	.LSM617:
 3578 0076 8091 0000 		lds r24,PWM
 3579 007a 8823      		tst r24
 3580 007c 01F0      		breq .L193
 3581               	.LSM618:
 3582 007e 8091 0000 		lds r24,pwmposition
 3583 0082 8F5F      		subi r24,lo8(-(1))
 3584 0084 8093 0000 		sts pwmposition,r24
 3585 0088 00C0      		rjmp .L194
 3586               	.L193:
 3587               	.LSM619:
 3588 008a 1092 0000 		sts pwmposition,__zero_reg__
 3589               	.L194:
 3590               	.LSM620:
 3591 008e 1092 0000 		sts timer2Counter+1,__zero_reg__
 3592 0092 1092 0000 		sts timer2Counter,__zero_reg__
 3593               	.L192:
 3594               	.LSM621:
 3595 0096 8AE0      		ldi r24,lo8(10)
 3596 0098 8093 B200 		sts 178,r24
 3597               	/* epilogue start */
 3598               	.LSM622:
 3599 009c 9F91      		pop r25
 3600 009e 8F91      		pop r24
 3601 00a0 0F90      		pop r0
 3602 00a2 0FBE      		out __SREG__,r0
 3603 00a4 0F90      		pop r0
 3604 00a6 1F90      		pop __zero_reg__
 3605 00a8 1895      		reti
 3606               	.LFE54:
 3608               		.section	.text.AbschnittLaden,"ax",@progbits
 3609               	.global	AbschnittLaden
 3611               	AbschnittLaden:
 3612               	.LFB55:
 3613               	.LSM623:
 3614               	.LVL328:
 3615               	/* prologue: function */
 3616               	/* frame size = 0 */
 3617               	/* stack size = 0 */
 3618               	.L__stack_usage = 0
 3619 0000 FC01      		movw r30,r24
 3620               	.LVL329:
 3621               	.LSM624:
 3622 0002 8189      		ldd r24,Z+17
 3623               	.LVL330:
 3624               	.LSM625:
 3625 0004 81FD      		sbrc r24,1
 3626 0006 00C0      		rjmp .L213
 3627               	.LSM626:
 3628 0008 8170      		andi r24,lo8(1)
 3629 000a 00C0      		rjmp .L196
 3630               	.L213:
 3631               	.LSM627:
 3632 000c 82E0      		ldi r24,lo8(2)
 3633               	.L196:
 3634               	.LVL331:
 3635               	.LSM628:
 3636 000e 1092 0000 		sts richtung,__zero_reg__
 3637               	.LSM629:
 3638 0012 4298      		cbi 40-32,2
 3639               	.LSM630:
 3640 0014 1092 0000 		sts CounterA+1,__zero_reg__
 3641 0018 1092 0000 		sts CounterA,__zero_reg__
 3642               	.LVL332:
 3643               	.LSM631:
 3644 001c 4081      		ld r20,Z
 3645               	.LVL333:
 3646               	.LSM632:
 3647 001e 2181      		ldd r18,Z+1
 3648               	.LVL334:
 3649               	.LSM633:
 3650 0020 27FF      		sbrs r18,7
 3651 0022 00C0      		rjmp .L197
 3652               	.LSM634:
 3653 0024 9091 0000 		lds r25,richtung
 3654 0028 9160      		ori r25,lo8(1)
 3655 002a 9093 0000 		sts richtung,r25
 3656               	.LSM635:
 3657 002e 4198      		cbi 40-32,1
 3658 0030 00C0      		rjmp .L198
 3659               	.L197:
 3660               	.LSM636:
 3661 0032 9091 0000 		lds r25,richtung
 3662 0036 9E7F      		andi r25,lo8(-2)
 3663 0038 9093 0000 		sts richtung,r25
 3664               	.LSM637:
 3665 003c 419A      		sbi 40-32,1
 3666               	.L198:
 3667               	.LVL335:
 3668               	.LSM638:
 3669 003e 2F77      		andi r18,lo8(127)
 3670               	.LSM639:
 3671 0040 30E0      		ldi r19,lo8(0)
 3672 0042 3093 0000 		sts StepCounterA+1,r19
 3673 0046 2093 0000 		sts StepCounterA,r18
 3674               	.LSM640:
 3675 004a 2091 0000 		lds r18,StepCounterA
 3676 004e 3091 0000 		lds r19,StepCounterA+1
 3677 0052 322F      		mov r19,r18
 3678 0054 2227      		clr r18
 3679 0056 3093 0000 		sts StepCounterA+1,r19
 3680 005a 2093 0000 		sts StepCounterA,r18
 3681               	.LSM641:
 3682 005e 2091 0000 		lds r18,StepCounterA
 3683 0062 3091 0000 		lds r19,StepCounterA+1
 3684 0066 240F      		add r18,r20
 3685 0068 311D      		adc r19,__zero_reg__
 3686 006a 3093 0000 		sts StepCounterA+1,r19
 3687 006e 2093 0000 		sts StepCounterA,r18
 3688               	.LSM642:
 3689 0072 9481      		ldd r25,Z+4
 3690               	.LVL336:
 3691               	.LSM643:
 3692 0074 2581      		ldd r18,Z+5
 3693 0076 30E0      		ldi r19,lo8(0)
 3694 0078 3093 0000 		sts DelayA+1,r19
 3695 007c 2093 0000 		sts DelayA,r18
 3696               	.LSM644:
 3697 0080 2091 0000 		lds r18,DelayA
 3698 0084 3091 0000 		lds r19,DelayA+1
 3699 0088 322F      		mov r19,r18
 3700 008a 2227      		clr r18
 3701 008c 3093 0000 		sts DelayA+1,r19
 3702 0090 2093 0000 		sts DelayA,r18
 3703               	.LSM645:
 3704 0094 2091 0000 		lds r18,DelayA
 3705 0098 3091 0000 		lds r19,DelayA+1
 3706 009c 290F      		add r18,r25
 3707 009e 311D      		adc r19,__zero_reg__
 3708 00a0 3093 0000 		sts DelayA+1,r19
 3709 00a4 2093 0000 		sts DelayA,r18
 3710               	.LSM646:
 3711 00a8 1092 0000 		sts CounterB+1,__zero_reg__
 3712 00ac 1092 0000 		sts CounterB,__zero_reg__
 3713               	.LSM647:
 3714 00b0 4598      		cbi 40-32,5
 3715               	.LSM648:
 3716 00b2 4281      		ldd r20,Z+2
 3717               	.LVL337:
 3718               	.LSM649:
 3719 00b4 2381      		ldd r18,Z+3
 3720               	.LVL338:
 3721               	.LSM650:
 3722 00b6 27FF      		sbrs r18,7
 3723 00b8 00C0      		rjmp .L199
 3724               	.LSM651:
 3725 00ba 9091 0000 		lds r25,richtung
 3726 00be 9260      		ori r25,lo8(2)
 3727 00c0 9093 0000 		sts richtung,r25
 3728               	.LSM652:
 3729 00c4 4498      		cbi 40-32,4
 3730 00c6 00C0      		rjmp .L200
 3731               	.L199:
 3732               	.LSM653:
 3733 00c8 9091 0000 		lds r25,richtung
 3734 00cc 9D7F      		andi r25,lo8(-3)
 3735 00ce 9093 0000 		sts richtung,r25
 3736               	.LSM654:
 3737 00d2 449A      		sbi 40-32,4
 3738               	.L200:
 3739               	.LVL339:
 3740               	.LSM655:
 3741 00d4 2F77      		andi r18,lo8(127)
 3742               	.LSM656:
 3743 00d6 30E0      		ldi r19,lo8(0)
 3744 00d8 3093 0000 		sts StepCounterB+1,r19
 3745 00dc 2093 0000 		sts StepCounterB,r18
 3746               	.LSM657:
 3747 00e0 2091 0000 		lds r18,StepCounterB
 3748 00e4 3091 0000 		lds r19,StepCounterB+1
 3749 00e8 322F      		mov r19,r18
 3750 00ea 2227      		clr r18
 3751 00ec 3093 0000 		sts StepCounterB+1,r19
 3752 00f0 2093 0000 		sts StepCounterB,r18
 3753               	.LSM658:
 3754 00f4 2091 0000 		lds r18,StepCounterB
 3755 00f8 3091 0000 		lds r19,StepCounterB+1
 3756 00fc 240F      		add r18,r20
 3757 00fe 311D      		adc r19,__zero_reg__
 3758 0100 3093 0000 		sts StepCounterB+1,r19
 3759 0104 2093 0000 		sts StepCounterB,r18
 3760               	.LSM659:
 3761 0108 3781      		ldd r19,Z+7
 3762 010a 20E0      		ldi r18,lo8(0)
 3763 010c 9681      		ldd r25,Z+6
 3764 010e 290F      		add r18,r25
 3765 0110 311D      		adc r19,__zero_reg__
 3766 0112 3093 0000 		sts DelayB+1,r19
 3767 0116 2093 0000 		sts DelayB,r18
 3768               	.LSM660:
 3769 011a 2A98      		cbi 37-32,2
 3770               	.LSM661:
 3771 011c 1092 0000 		sts CounterC+1,__zero_reg__
 3772 0120 1092 0000 		sts CounterC,__zero_reg__
 3773               	.LVL340:
 3774               	.LSM662:
 3775 0124 4085      		ldd r20,Z+8
 3776               	.LVL341:
 3777               	.LSM663:
 3778 0126 2185      		ldd r18,Z+9
 3779               	.LVL342:
 3780               	.LSM664:
 3781 0128 27FF      		sbrs r18,7
 3782 012a 00C0      		rjmp .L201
 3783               	.LSM665:
 3784 012c 9091 0000 		lds r25,richtung
 3785 0130 9460      		ori r25,lo8(4)
 3786 0132 9093 0000 		sts richtung,r25
 3787               	.LSM666:
 3788 0136 2998      		cbi 37-32,1
 3789 0138 00C0      		rjmp .L202
 3790               	.L201:
 3791               	.LSM667:
 3792 013a 9091 0000 		lds r25,richtung
 3793 013e 9B7F      		andi r25,lo8(-5)
 3794 0140 9093 0000 		sts richtung,r25
 3795               	.LSM668:
 3796 0144 299A      		sbi 37-32,1
 3797               	.L202:
 3798               	.LVL343:
 3799               	.LSM669:
 3800 0146 2F77      		andi r18,lo8(127)
 3801               	.LSM670:
 3802 0148 30E0      		ldi r19,lo8(0)
 3803 014a 3093 0000 		sts StepCounterC+1,r19
 3804 014e 2093 0000 		sts StepCounterC,r18
 3805               	.LSM671:
 3806 0152 2091 0000 		lds r18,StepCounterC
 3807 0156 3091 0000 		lds r19,StepCounterC+1
 3808 015a 322F      		mov r19,r18
 3809 015c 2227      		clr r18
 3810 015e 3093 0000 		sts StepCounterC+1,r19
 3811 0162 2093 0000 		sts StepCounterC,r18
 3812               	.LSM672:
 3813 0166 2091 0000 		lds r18,StepCounterC
 3814 016a 3091 0000 		lds r19,StepCounterC+1
 3815 016e 240F      		add r18,r20
 3816 0170 311D      		adc r19,__zero_reg__
 3817 0172 3093 0000 		sts StepCounterC+1,r19
 3818 0176 2093 0000 		sts StepCounterC,r18
 3819               	.LSM673:
 3820 017a 9485      		ldd r25,Z+12
 3821               	.LVL344:
 3822               	.LSM674:
 3823 017c 2585      		ldd r18,Z+13
 3824 017e 30E0      		ldi r19,lo8(0)
 3825 0180 3093 0000 		sts DelayC+1,r19
 3826 0184 2093 0000 		sts DelayC,r18
 3827               	.LSM675:
 3828 0188 2091 0000 		lds r18,DelayC
 3829 018c 3091 0000 		lds r19,DelayC+1
 3830 0190 322F      		mov r19,r18
 3831 0192 2227      		clr r18
 3832 0194 3093 0000 		sts DelayC+1,r19
 3833 0198 2093 0000 		sts DelayC,r18
 3834               	.LSM676:
 3835 019c 2091 0000 		lds r18,DelayC
 3836 01a0 3091 0000 		lds r19,DelayC+1
 3837 01a4 290F      		add r18,r25
 3838 01a6 311D      		adc r19,__zero_reg__
 3839 01a8 3093 0000 		sts DelayC+1,r19
 3840 01ac 2093 0000 		sts DelayC,r18
 3841               	.LSM677:
 3842 01b0 2D98      		cbi 37-32,5
 3843               	.LSM678:
 3844 01b2 1092 0000 		sts CounterD+1,__zero_reg__
 3845 01b6 1092 0000 		sts CounterD,__zero_reg__
 3846               	.LVL345:
 3847               	.LSM679:
 3848 01ba 4285      		ldd r20,Z+10
 3849               	.LVL346:
 3850               	.LSM680:
 3851 01bc 2385      		ldd r18,Z+11
 3852               	.LVL347:
 3853               	.LSM681:
 3854 01be 27FF      		sbrs r18,7
 3855 01c0 00C0      		rjmp .L203
 3856               	.LSM682:
 3857 01c2 9091 0000 		lds r25,richtung
 3858 01c6 9860      		ori r25,lo8(8)
 3859 01c8 9093 0000 		sts richtung,r25
 3860               	.LSM683:
 3861 01cc 2C98      		cbi 37-32,4
 3862 01ce 00C0      		rjmp .L204
 3863               	.L203:
 3864               	.LSM684:
 3865 01d0 9091 0000 		lds r25,richtung
 3866 01d4 977F      		andi r25,lo8(-9)
 3867 01d6 9093 0000 		sts richtung,r25
 3868               	.LSM685:
 3869 01da 2C9A      		sbi 37-32,4
 3870               	.L204:
 3871               	.LVL348:
 3872               	.LSM686:
 3873 01dc 2F77      		andi r18,lo8(127)
 3874               	.LSM687:
 3875 01de 30E0      		ldi r19,lo8(0)
 3876 01e0 3093 0000 		sts StepCounterD+1,r19
 3877 01e4 2093 0000 		sts StepCounterD,r18
 3878               	.LSM688:
 3879 01e8 2091 0000 		lds r18,StepCounterD
 3880 01ec 3091 0000 		lds r19,StepCounterD+1
 3881 01f0 322F      		mov r19,r18
 3882 01f2 2227      		clr r18
 3883 01f4 3093 0000 		sts StepCounterD+1,r19
 3884 01f8 2093 0000 		sts StepCounterD,r18
 3885               	.LSM689:
 3886 01fc 2091 0000 		lds r18,StepCounterD
 3887 0200 3091 0000 		lds r19,StepCounterD+1
 3888 0204 240F      		add r18,r20
 3889 0206 311D      		adc r19,__zero_reg__
 3890 0208 3093 0000 		sts StepCounterD+1,r19
 3891 020c 2093 0000 		sts StepCounterD,r18
 3892               	.LSM690:
 3893 0210 9685      		ldd r25,Z+14
 3894               	.LVL349:
 3895               	.LSM691:
 3896 0212 2785      		ldd r18,Z+15
 3897 0214 30E0      		ldi r19,lo8(0)
 3898 0216 3093 0000 		sts DelayD+1,r19
 3899 021a 2093 0000 		sts DelayD,r18
 3900               	.LSM692:
 3901 021e 2091 0000 		lds r18,DelayD
 3902 0222 3091 0000 		lds r19,DelayD+1
 3903 0226 322F      		mov r19,r18
 3904 0228 2227      		clr r18
 3905 022a 3093 0000 		sts DelayD+1,r19
 3906 022e 2093 0000 		sts DelayD,r18
 3907               	.LSM693:
 3908 0232 2091 0000 		lds r18,DelayD
 3909 0236 3091 0000 		lds r19,DelayD+1
 3910 023a 290F      		add r18,r25
 3911 023c 311D      		adc r19,__zero_reg__
 3912 023e 3093 0000 		sts DelayD+1,r19
 3913 0242 2093 0000 		sts DelayD,r18
 3914               	.LSM694:
 3915 0246 1092 0000 		sts motorstatus,__zero_reg__
 3916               	.LSM695:
 3917 024a 4091 0000 		lds r20,StepCounterA
 3918 024e 5091 0000 		lds r21,StepCounterA+1
 3919 0252 2091 0000 		lds r18,StepCounterB
 3920 0256 3091 0000 		lds r19,StepCounterB+1
 3921 025a 2417      		cp r18,r20
 3922 025c 3507      		cpc r19,r21
 3923 025e 00F4      		brsh .L205
 3924               	.LSM696:
 3925 0260 4091 0000 		lds r20,StepCounterA
 3926 0264 5091 0000 		lds r21,StepCounterA+1
 3927 0268 2091 0000 		lds r18,StepCounterC
 3928 026c 3091 0000 		lds r19,StepCounterC+1
 3929 0270 2417      		cp r18,r20
 3930 0272 3507      		cpc r19,r21
 3931 0274 00F4      		brsh .L206
 3932               	.LSM697:
 3933 0276 4091 0000 		lds r20,StepCounterA
 3934 027a 5091 0000 		lds r21,StepCounterA+1
 3935 027e 2091 0000 		lds r18,StepCounterD
 3936 0282 3091 0000 		lds r19,StepCounterD+1
 3937 0286 2417      		cp r18,r20
 3938 0288 3507      		cpc r19,r21
 3939 028a 00F4      		brsh .L211
 3940               	.LSM698:
 3941 028c 9091 0000 		lds r25,motorstatus
 3942 0290 9160      		ori r25,lo8(1)
 3943 0292 00C0      		rjmp .L214
 3944               	.L206:
 3945               	.LSM699:
 3946 0294 4091 0000 		lds r20,StepCounterC
 3947 0298 5091 0000 		lds r21,StepCounterC+1
 3948 029c 2091 0000 		lds r18,StepCounterD
 3949 02a0 3091 0000 		lds r19,StepCounterD+1
 3950 02a4 2417      		cp r18,r20
 3951 02a6 3507      		cpc r19,r21
 3952 02a8 00F4      		brsh .L211
 3953 02aa 00C0      		rjmp .L215
 3954               	.L205:
 3955               	.LSM700:
 3956 02ac 4091 0000 		lds r20,StepCounterB
 3957 02b0 5091 0000 		lds r21,StepCounterB+1
 3958 02b4 2091 0000 		lds r18,StepCounterC
 3959 02b8 3091 0000 		lds r19,StepCounterC+1
 3960 02bc 2417      		cp r18,r20
 3961 02be 3507      		cpc r19,r21
 3962 02c0 00F4      		brsh .L210
 3963               	.LSM701:
 3964 02c2 4091 0000 		lds r20,StepCounterB
 3965 02c6 5091 0000 		lds r21,StepCounterB+1
 3966 02ca 2091 0000 		lds r18,StepCounterD
 3967 02ce 3091 0000 		lds r19,StepCounterD+1
 3968 02d2 2417      		cp r18,r20
 3969 02d4 3507      		cpc r19,r21
 3970 02d6 00F4      		brsh .L211
 3971               	.LSM702:
 3972 02d8 9091 0000 		lds r25,motorstatus
 3973 02dc 9260      		ori r25,lo8(2)
 3974 02de 00C0      		rjmp .L214
 3975               	.L211:
 3976               	.LSM703:
 3977 02e0 9091 0000 		lds r25,motorstatus
 3978 02e4 9860      		ori r25,lo8(8)
 3979 02e6 00C0      		rjmp .L214
 3980               	.L210:
 3981               	.LSM704:
 3982 02e8 4091 0000 		lds r20,StepCounterC
 3983 02ec 5091 0000 		lds r21,StepCounterC+1
 3984 02f0 2091 0000 		lds r18,StepCounterD
 3985 02f4 3091 0000 		lds r19,StepCounterD+1
 3986 02f8 2417      		cp r18,r20
 3987 02fa 3507      		cpc r19,r21
 3988 02fc 00F4      		brsh .L212
 3989               	.L215:
 3990               	.LSM705:
 3991 02fe 9091 0000 		lds r25,motorstatus
 3992 0302 9460      		ori r25,lo8(4)
 3993               	.L214:
 3994 0304 9093 0000 		sts motorstatus,r25
 3995 0308 0895      		ret
 3996               	.L212:
 3997               	.LSM706:
 3998 030a 9091 0000 		lds r25,motorstatus
 3999 030e 9860      		ori r25,lo8(8)
 4000 0310 9093 0000 		sts motorstatus,r25
 4001               	.LSM707:
 4002 0314 0895      		ret
 4003               	.LFE55:
 4005               		.section	.text.AnschlagVonMotor,"ax",@progbits
 4006               	.global	AnschlagVonMotor
 4008               	AnschlagVonMotor:
 4009               	.LFB56:
 4010               	.LSM708:
 4011               	.LVL350:
 4012 0000 CF93      		push r28
 4013               	/* prologue: function */
 4014               	/* frame size = 0 */
 4015               	/* stack size = 1 */
 4016               	.L__stack_usage = 1
 4017 0002 C82F      		mov r28,r24
 4018               	.LSM709:
 4019 0004 2091 0000 		lds r18,richtung
 4020 0008 482F      		mov r20,r24
 4021 000a 50E0      		ldi r21,lo8(0)
 4022 000c 30E0      		ldi r19,lo8(0)
 4023 000e 082E      		mov r0,r24
 4024 0010 00C0      		rjmp 2f
 4025 0012 3595      	1:	asr r19
 4026 0014 2795      		ror r18
 4027 0016 0A94      	2:	dec r0
 4028 0018 02F4      		brpl 1b
 4029 001a BA01      		movw r22,r20
 4030 001c 6C5F      		subi r22,lo8(-(4))
 4031 001e 7F4F      		sbci r23,hi8(-(4))
 4032 0020 20FF      		sbrs r18,0
 4033 0022 00C0      		rjmp .L217
 4034               	.LVL351:
 4035               	.LSM710:
 4036 0024 2091 0000 		lds r18,anschlagstatus
 4037 0028 30E0      		ldi r19,lo8(0)
 4038 002a 062E      		mov r0,r22
 4039 002c 00C0      		rjmp 2f
 4040 002e 3595      	1:	asr r19
 4041 0030 2795      		ror r18
 4042 0032 0A94      	2:	dec r0
 4043 0034 02F4      		brpl 1b
 4044 0036 20FD      		sbrc r18,0
 4045 0038 00C0      		rjmp .L216
 4046               	.LSM711:
 4047               	/* #APP */
 4048               	 ;  714 "TWI_Slave.c" 1
 4049 003a F894      		cli
 4050               	 ;  0 "" 2
 4051               	.LSM712:
 4052               	/* #NOAPP */
 4053 003c 8091 0000 		lds r24,anschlagstatus
 4054 0040 21E0      		ldi r18,lo8(1)
 4055 0042 30E0      		ldi r19,hi8(1)
 4056 0044 F901      		movw r30,r18
 4057 0046 00C0      		rjmp 2f
 4058 0048 EE0F      	1:	lsl r30
 4059 004a FF1F      		rol r31
 4060 004c 6A95      	2:	dec r22
 4061 004e 02F4      		brpl 1b
 4062 0050 8E2B      		or r24,r30
 4063 0052 8093 0000 		sts anschlagstatus,r24
 4064               	.LSM713:
 4065 0056 8091 0000 		lds r24,cncstatus
 4066 005a 83FF      		sbrs r24,3
 4067 005c 00C0      		rjmp .L219
 4068               	.LSM714:
 4069 005e 8C2F      		mov r24,r28
 4070 0060 8B54      		subi r24,lo8(-(-75))
 4071 0062 8093 0000 		sts sendbuffer,r24
 4072               	.LSM715:
 4073 0066 6091 0000 		lds r22,cncstatus
 4074 006a C901      		movw r24,r18
 4075 006c 0C2E      		mov r0,r28
 4076 006e 00C0      		rjmp 2f
 4077 0070 880F      	1:	lsl r24
 4078 0072 991F      		rol r25
 4079 0074 0A94      	2:	dec r0
 4080 0076 02F4      		brpl 1b
 4081 0078 682B      		or r22,r24
 4082 007a 6093 0000 		sts cncstatus,r22
 4083 007e 4E5F      		subi r20,lo8(-(2))
 4084 0080 5F4F      		sbci r21,hi8(-(2))
 4085               	.LVL352:
 4086               	.LSM716:
 4087 0082 C230      		cpi r28,lo8(2)
 4088 0084 00F4      		brsh .L220
 4089               	.LSM717:
 4090 0086 88B1      		in r24,40-32
 4091 0088 00C0      		rjmp 2f
 4092 008a 220F      	1:	lsl r18
 4093 008c 331F      		rol r19
 4094 008e 4A95      	2:	dec r20
 4095 0090 02F4      		brpl 1b
 4096 0092 822B      		or r24,r18
 4097 0094 88B9      		out 40-32,r24
 4098               	.LSM718:
 4099 0096 1092 0000 		sts StepCounterA+1,__zero_reg__
 4100 009a 1092 0000 		sts StepCounterA,__zero_reg__
 4101               	.LSM719:
 4102 009e 1092 0000 		sts StepCounterB+1,__zero_reg__
 4103 00a2 1092 0000 		sts StepCounterB,__zero_reg__
 4104               	.LSM720:
 4105 00a6 1092 0000 		sts CounterA+1,__zero_reg__
 4106 00aa 1092 0000 		sts CounterA,__zero_reg__
 4107               	.LSM721:
 4108 00ae 1092 0000 		sts CounterB+1,__zero_reg__
 4109 00b2 1092 0000 		sts CounterB,__zero_reg__
 4110 00b6 00C0      		rjmp .L221
 4111               	.L220:
 4112               	.LSM722:
 4113 00b8 85B1      		in r24,37-32
 4114 00ba 00C0      		rjmp 2f
 4115 00bc 220F      	1:	lsl r18
 4116 00be 331F      		rol r19
 4117 00c0 4A95      	2:	dec r20
 4118 00c2 02F4      		brpl 1b
 4119 00c4 822B      		or r24,r18
 4120 00c6 85B9      		out 37-32,r24
 4121               	.LSM723:
 4122 00c8 1092 0000 		sts StepCounterC+1,__zero_reg__
 4123 00cc 1092 0000 		sts StepCounterC,__zero_reg__
 4124               	.LSM724:
 4125 00d0 1092 0000 		sts StepCounterD+1,__zero_reg__
 4126 00d4 1092 0000 		sts StepCounterD,__zero_reg__
 4127               	.LSM725:
 4128 00d8 1092 0000 		sts CounterC+1,__zero_reg__
 4129 00dc 1092 0000 		sts CounterC,__zero_reg__
 4130               	.LSM726:
 4131 00e0 1092 0000 		sts CounterD+1,__zero_reg__
 4132 00e4 1092 0000 		sts CounterD,__zero_reg__
 4133 00e8 00C0      		rjmp .L221
 4134               	.L219:
 4135               	.LSM727:
 4136 00ea 1092 0000 		sts cncstatus,__zero_reg__
 4137               	.LSM728:
 4138 00ee 8C2F      		mov r24,r28
 4139 00f0 8B55      		subi r24,lo8(-(-91))
 4140 00f2 8093 0000 		sts sendbuffer,r24
 4141 00f6 4E5F      		subi r20,lo8(-(2))
 4142 00f8 5F4F      		sbci r21,hi8(-(2))
 4143               	.LSM729:
 4144 00fa C230      		cpi r28,lo8(2)
 4145 00fc 00F4      		brsh .L222
 4146               	.LSM730:
 4147 00fe 88B1      		in r24,40-32
 4148 0100 00C0      		rjmp 2f
 4149 0102 220F      	1:	lsl r18
 4150 0104 331F      		rol r19
 4151 0106 4A95      	2:	dec r20
 4152 0108 02F4      		brpl 1b
 4153 010a 822B      		or r24,r18
 4154 010c 88B9      		out 40-32,r24
 4155               	.LSM731:
 4156 010e 85B1      		in r24,37-32
 4157 0110 8E2B      		or r24,r30
 4158 0112 85B9      		out 37-32,r24
 4159 0114 00C0      		rjmp .L223
 4160               	.L222:
 4161               	.LSM732:
 4162 0116 85B1      		in r24,37-32
 4163 0118 B901      		movw r22,r18
 4164 011a 00C0      		rjmp 2f
 4165 011c 660F      	1:	lsl r22
 4166 011e 771F      		rol r23
 4167 0120 4A95      	2:	dec r20
 4168 0122 02F4      		brpl 1b
 4169 0124 862B      		or r24,r22
 4170 0126 85B9      		out 37-32,r24
 4171               	.LSM733:
 4172 0128 88B1      		in r24,40-32
 4173 012a 0C2E      		mov r0,r28
 4174 012c 00C0      		rjmp 2f
 4175 012e 220F      	1:	lsl r18
 4176 0130 331F      		rol r19
 4177 0132 0A94      	2:	dec r0
 4178 0134 02F4      		brpl 1b
 4179 0136 822B      		or r24,r18
 4180 0138 88B9      		out 40-32,r24
 4181               	.L223:
 4182               	.LSM734:
 4183 013a 1092 0000 		sts StepCounterA+1,__zero_reg__
 4184 013e 1092 0000 		sts StepCounterA,__zero_reg__
 4185               	.LSM735:
 4186 0142 1092 0000 		sts StepCounterB+1,__zero_reg__
 4187 0146 1092 0000 		sts StepCounterB,__zero_reg__
 4188               	.LSM736:
 4189 014a 1092 0000 		sts StepCounterC+1,__zero_reg__
 4190 014e 1092 0000 		sts StepCounterC,__zero_reg__
 4191               	.LSM737:
 4192 0152 1092 0000 		sts StepCounterD+1,__zero_reg__
 4193 0156 1092 0000 		sts StepCounterD,__zero_reg__
 4194               	.LSM738:
 4195 015a 1092 0000 		sts CounterA+1,__zero_reg__
 4196 015e 1092 0000 		sts CounterA,__zero_reg__
 4197               	.LSM739:
 4198 0162 1092 0000 		sts CounterB+1,__zero_reg__
 4199 0166 1092 0000 		sts CounterB,__zero_reg__
 4200               	.LSM740:
 4201 016a 1092 0000 		sts CounterC+1,__zero_reg__
 4202 016e 1092 0000 		sts CounterC,__zero_reg__
 4203               	.LSM741:
 4204 0172 1092 0000 		sts CounterD+1,__zero_reg__
 4205 0176 1092 0000 		sts CounterD,__zero_reg__
 4206               	.LSM742:
 4207 017a 1092 0000 		sts ladeposition,__zero_reg__
 4208               	.LSM743:
 4209 017e 1092 0000 		sts motorstatus,__zero_reg__
 4210               	.L221:
 4211               	.LSM744:
 4212 0182 8091 0000 		lds r24,abschnittnummer
 4213 0186 9091 0000 		lds r25,abschnittnummer+1
 4214 018a 8093 0000 		sts sendbuffer+5,r24
 4215               	.LSM745:
 4216 018e 8091 0000 		lds r24,ladeposition
 4217 0192 8093 0000 		sts sendbuffer+6,r24
 4218               	.LSM746:
 4219 0196 8091 0000 		lds r24,cncstatus
 4220 019a 8093 0000 		sts sendbuffer+7,r24
 4221               	.LSM747:
 4222 019e 80E0      		ldi r24,lo8(sendbuffer)
 4223 01a0 90E0      		ldi r25,hi8(sendbuffer)
 4224 01a2 62E3      		ldi r22,lo8(50)
 4225 01a4 0E94 0000 		call usb_rawhid_send
 4226               	.LSM748:
 4227 01a8 1092 0000 		sts sendbuffer,__zero_reg__
 4228               	.LSM749:
 4229 01ac 1092 0000 		sts sendbuffer+5,__zero_reg__
 4230               	.LSM750:
 4231 01b0 1092 0000 		sts sendbuffer+6,__zero_reg__
 4232               	.LSM751:
 4233 01b4 1092 0000 		sts sendbuffer+7,__zero_reg__
 4234               	.LSM752:
 4235 01b8 8091 0000 		lds r24,richtung
 4236 01bc 21E0      		ldi r18,lo8(1)
 4237 01be 30E0      		ldi r19,hi8(1)
 4238 01c0 00C0      		rjmp 2f
 4239 01c2 220F      	1:	lsl r18
 4240 01c4 331F      		rol r19
 4241 01c6 CA95      	2:	dec r28
 4242 01c8 02F4      		brpl 1b
 4243 01ca 2095      		com r18
 4244 01cc 2823      		and r18,r24
 4245 01ce 2093 0000 		sts richtung,r18
 4246               	.LSM753:
 4247               	/* #APP */
 4248               	 ;  812 "TWI_Slave.c" 1
 4249 01d2 7894      		sei
 4250               	 ;  0 "" 2
 4251               	/* #NOAPP */
 4252 01d4 00C0      		rjmp .L216
 4253               	.L217:
 4254               	.LSM754:
 4255 01d6 8091 0000 		lds r24,anschlagstatus
 4256 01da 90E0      		ldi r25,lo8(0)
 4257 01dc 062E      		mov r0,r22
 4258 01de 00C0      		rjmp 2f
 4259 01e0 9595      	1:	asr r25
 4260 01e2 8795      		ror r24
 4261 01e4 0A94      	2:	dec r0
 4262 01e6 02F4      		brpl 1b
 4263 01e8 80FD      		sbrc r24,0
 4264 01ea 00C0      		rjmp .L216
 4265               	.LSM755:
 4266 01ec 2091 0000 		lds r18,anschlagstatus
 4267 01f0 81E0      		ldi r24,lo8(1)
 4268 01f2 90E0      		ldi r25,hi8(1)
 4269 01f4 00C0      		rjmp 2f
 4270 01f6 880F      	1:	lsl r24
 4271 01f8 991F      		rol r25
 4272 01fa 6A95      	2:	dec r22
 4273 01fc 02F4      		brpl 1b
 4274 01fe 8095      		com r24
 4275 0200 8223      		and r24,r18
 4276 0202 8093 0000 		sts anschlagstatus,r24
 4277               	.L216:
 4278               	/* epilogue start */
 4279               	.LSM756:
 4280 0206 CF91      		pop r28
 4281               	.LVL353:
 4282 0208 0895      		ret
 4283               	.LFE56:
 4285               		.section	.text.StepEndVonMotor,"ax",@progbits
 4286               	.global	StepEndVonMotor
 4288               	StepEndVonMotor:
 4289               	.LFB57:
 4290               	.LSM757:
 4291               	.LVL354:
 4292 0000 CF93      		push r28
 4293               	/* prologue: function */
 4294               	/* frame size = 0 */
 4295               	/* stack size = 1 */
 4296               	.L__stack_usage = 1
 4297 0002 C82F      		mov r28,r24
 4298               	.LSM758:
 4299 0004 68B1      		in r22,40-32
 4300 0006 482F      		mov r20,r24
 4301 0008 50E0      		ldi r21,lo8(0)
 4302 000a CA01      		movw r24,r20
 4303               	.LVL355:
 4304 000c 0296      		adiw r24,2
 4305 000e 21E0      		ldi r18,lo8(1)
 4306 0010 30E0      		ldi r19,hi8(1)
 4307 0012 F901      		movw r30,r18
 4308 0014 00C0      		rjmp 2f
 4309 0016 EE0F      	1:	lsl r30
 4310 0018 FF1F      		rol r31
 4311 001a 8A95      	2:	dec r24
 4312 001c 02F4      		brpl 1b
 4313 001e CF01      		movw r24,r30
 4314 0020 6E2B      		or r22,r30
 4315 0022 68B9      		out 40-32,r22
 4316               	.LSM759:
 4317 0024 9091 0000 		lds r25,cncstatus
 4318               	.LSM760:
 4319 0028 C230      		cpi r28,lo8(2)
 4320 002a 00F4      		brsh .L225
 4321               	.LSM761:
 4322 002c 98B1      		in r25,40-32
 4323 002e 982B      		or r25,r24
 4324 0030 98B9      		out 40-32,r25
 4325               	.LSM762:
 4326 0032 1092 0000 		sts StepCounterA+1,__zero_reg__
 4327 0036 1092 0000 		sts StepCounterA,__zero_reg__
 4328               	.LSM763:
 4329 003a 1092 0000 		sts StepCounterB+1,__zero_reg__
 4330 003e 1092 0000 		sts StepCounterB,__zero_reg__
 4331 0042 00C0      		rjmp .L226
 4332               	.L225:
 4333               	.LSM764:
 4334 0044 95B1      		in r25,37-32
 4335 0046 0C2E      		mov r0,r28
 4336 0048 00C0      		rjmp 2f
 4337 004a 220F      	1:	lsl r18
 4338 004c 331F      		rol r19
 4339 004e 0A94      	2:	dec r0
 4340 0050 02F4      		brpl 1b
 4341 0052 922B      		or r25,r18
 4342 0054 95B9      		out 37-32,r25
 4343               	.LSM765:
 4344 0056 1092 0000 		sts StepCounterC+1,__zero_reg__
 4345 005a 1092 0000 		sts StepCounterC,__zero_reg__
 4346               	.LSM766:
 4347 005e 1092 0000 		sts StepCounterD+1,__zero_reg__
 4348 0062 1092 0000 		sts StepCounterD,__zero_reg__
 4349               	.L226:
 4350               	.LSM767:
 4351 0066 98B1      		in r25,40-32
 4352 0068 982B      		or r25,r24
 4353 006a 98B9      		out 40-32,r25
 4354               	.LSM768:
 4355 006c 1092 0000 		sts StepCounterA+1,__zero_reg__
 4356 0070 1092 0000 		sts StepCounterA,__zero_reg__
 4357               	.LSM769:
 4358 0074 1092 0000 		sts StepCounterB+1,__zero_reg__
 4359 0078 1092 0000 		sts StepCounterB,__zero_reg__
 4360               	.LSM770:
 4361 007c 1092 0000 		sts CounterA+1,__zero_reg__
 4362 0080 1092 0000 		sts CounterA,__zero_reg__
 4363               	.LSM771:
 4364 0084 1092 0000 		sts CounterB+1,__zero_reg__
 4365 0088 1092 0000 		sts CounterB,__zero_reg__
 4366               	.LSM772:
 4367 008c 65B1      		in r22,37-32
 4368 008e 21E0      		ldi r18,lo8(1)
 4369 0090 30E0      		ldi r19,hi8(1)
 4370 0092 C901      		movw r24,r18
 4371 0094 0C2E      		mov r0,r28
 4372 0096 00C0      		rjmp 2f
 4373 0098 880F      	1:	lsl r24
 4374 009a 991F      		rol r25
 4375 009c 0A94      	2:	dec r0
 4376 009e 02F4      		brpl 1b
 4377 00a0 682B      		or r22,r24
 4378 00a2 65B9      		out 37-32,r22
 4379               	.LSM773:
 4380 00a4 1092 0000 		sts StepCounterC+1,__zero_reg__
 4381 00a8 1092 0000 		sts StepCounterC,__zero_reg__
 4382               	.LSM774:
 4383 00ac 1092 0000 		sts StepCounterD+1,__zero_reg__
 4384 00b0 1092 0000 		sts StepCounterD,__zero_reg__
 4385               	.LSM775:
 4386 00b4 1092 0000 		sts CounterC+1,__zero_reg__
 4387 00b8 1092 0000 		sts CounterC,__zero_reg__
 4388               	.LSM776:
 4389 00bc 1092 0000 		sts CounterD+1,__zero_reg__
 4390 00c0 1092 0000 		sts CounterD,__zero_reg__
 4391               	.LSM777:
 4392 00c4 8091 0000 		lds r24,abschnittnummer
 4393 00c8 9091 0000 		lds r25,abschnittnummer+1
 4394 00cc 6091 0000 		lds r22,endposition
 4395 00d0 7091 0000 		lds r23,endposition+1
 4396 00d4 8617      		cp r24,r22
 4397 00d6 9707      		cpc r25,r23
 4398 00d8 01F4      		brne .L227
 4399               	.LSM778:
 4400 00da 1092 0000 		sts ringbufferstatus,__zero_reg__
 4401               	.LSM779:
 4402 00de 8091 0000 		lds r24,anschlagstatus
 4403 00e2 4C5F      		subi r20,lo8(-(4))
 4404 00e4 5F4F      		sbci r21,hi8(-(4))
 4405               	.LVL356:
 4406 00e6 00C0      		rjmp 2f
 4407 00e8 220F      	1:	lsl r18
 4408 00ea 331F      		rol r19
 4409 00ec 4A95      	2:	dec r20
 4410 00ee 02F4      		brpl 1b
 4411 00f0 2095      		com r18
 4412 00f2 2823      		and r18,r24
 4413 00f4 2093 0000 		sts anschlagstatus,r18
 4414               	.LSM780:
 4415 00f8 1092 0000 		sts motorstatus,__zero_reg__
 4416               	.LSM781:
 4417 00fc C655      		subi r28,lo8(-(-86))
 4418               	.LVL357:
 4419 00fe C093 0000 		sts sendbuffer,r28
 4420               	.LSM782:
 4421 0102 8091 0000 		lds r24,abschnittnummer
 4422 0106 9091 0000 		lds r25,abschnittnummer+1
 4423 010a 8093 0000 		sts sendbuffer+1,r24
 4424               	.LSM783:
 4425 010e 8091 0000 		lds r24,abschnittnummer
 4426 0112 9091 0000 		lds r25,abschnittnummer+1
 4427 0116 8093 0000 		sts sendbuffer+5,r24
 4428               	.LSM784:
 4429 011a 8091 0000 		lds r24,ladeposition
 4430 011e 8093 0000 		sts sendbuffer+6,r24
 4431               	.LSM785:
 4432 0122 8091 0000 		lds r24,cncstatus
 4433 0126 8093 0000 		sts sendbuffer+7,r24
 4434               	.LSM786:
 4435 012a 80E0      		ldi r24,lo8(sendbuffer)
 4436 012c 90E0      		ldi r25,hi8(sendbuffer)
 4437 012e 62E3      		ldi r22,lo8(50)
 4438 0130 0E94 0000 		call usb_rawhid_send
 4439               	.LSM787:
 4440 0134 1092 0000 		sts sendbuffer,__zero_reg__
 4441               	.LSM788:
 4442 0138 1092 0000 		sts sendbuffer+1,__zero_reg__
 4443               	.LSM789:
 4444 013c 1092 0000 		sts sendbuffer+5,__zero_reg__
 4445               	.LSM790:
 4446 0140 1092 0000 		sts sendbuffer+6,__zero_reg__
 4447               	.LSM791:
 4448 0144 1092 0000 		sts sendbuffer+7,__zero_reg__
 4449               	.LSM792:
 4450 0148 1092 0000 		sts ladeposition,__zero_reg__
 4451 014c 00C0      		rjmp .L224
 4452               	.LVL358:
 4453               	.L227:
 4454               	.LBB119:
 4455               	.LBB120:
 4456               	.LSM793:
 4457 014e 8091 0000 		lds r24,ladeposition
 4458               	.LVL359:
 4459               	.LSM794:
 4460 0152 8370      		andi r24,lo8(3)
 4461               	.LVL360:
 4462               	.LSM795:
 4463 0154 21E2      		ldi r18,lo8(33)
 4464 0156 829F      		mul r24,r18
 4465 0158 9001      		movw r18,r0
 4466 015a 1124      		clr r1
 4467 015c C901      		movw r24,r18
 4468               	.LVL361:
 4469 015e 8050      		subi r24,lo8(-(CNCDaten))
 4470 0160 9040      		sbci r25,hi8(-(CNCDaten))
 4471 0162 0E94 0000 		call AbschnittLaden
 4472               	.LVL362:
 4473               	.LSM796:
 4474 0166 8230      		cpi r24,lo8(2)
 4475 0168 01F4      		brne .L229
 4476               	.LSM797:
 4477 016a 8091 0000 		lds r24,abschnittnummer
 4478 016e 9091 0000 		lds r25,abschnittnummer+1
 4479               	.LVL363:
 4480 0172 9093 0000 		sts endposition+1,r25
 4481 0176 8093 0000 		sts endposition,r24
 4482 017a 00C0      		rjmp .L230
 4483               	.LVL364:
 4484               	.L229:
 4485               	.LSM798:
 4486 017c 2091 0000 		lds r18,abschnittnummer
 4487 0180 3091 0000 		lds r19,abschnittnummer+1
 4488 0184 2093 0000 		sts sendbuffer+5,r18
 4489               	.LSM799:
 4490 0188 8091 0000 		lds r24,ladeposition
 4491               	.LVL365:
 4492 018c 8093 0000 		sts sendbuffer+6,r24
 4493               	.LSM800:
 4494 0190 C056      		subi r28,lo8(-(-96))
 4495               	.LVL366:
 4496 0192 C093 0000 		sts sendbuffer,r28
 4497               	.LSM801:
 4498 0196 80E0      		ldi r24,lo8(sendbuffer)
 4499 0198 90E0      		ldi r25,hi8(sendbuffer)
 4500 019a 62E3      		ldi r22,lo8(50)
 4501 019c 0E94 0000 		call usb_rawhid_send
 4502               	.LSM802:
 4503 01a0 1092 0000 		sts sendbuffer,__zero_reg__
 4504               	.LSM803:
 4505 01a4 1092 0000 		sts sendbuffer+5,__zero_reg__
 4506               	.LSM804:
 4507 01a8 1092 0000 		sts sendbuffer+6,__zero_reg__
 4508               	.LVL367:
 4509               	.L230:
 4510               	.LSM805:
 4511 01ac 8091 0000 		lds r24,ladeposition
 4512 01b0 8F5F      		subi r24,lo8(-(1))
 4513 01b2 8093 0000 		sts ladeposition,r24
 4514               	.LBE120:
 4515               	.LSM806:
 4516 01b6 8091 0000 		lds r24,AbschnittCounter
 4517 01ba 9091 0000 		lds r25,AbschnittCounter+1
 4518 01be 0196      		adiw r24,1
 4519 01c0 9093 0000 		sts AbschnittCounter+1,r25
 4520 01c4 8093 0000 		sts AbschnittCounter,r24
 4521               	.L224:
 4522               	/* epilogue start */
 4523               	.LBE119:
 4524               	.LSM807:
 4525 01c8 CF91      		pop r28
 4526 01ca 0895      		ret
 4527               	.LFE57:
 4529               		.data
 4530               	.LC1:
 4531 0004 4775 7465 		.string	"Guten Tag"
 4531      6E20 5461 
 4531      6700 
 4532 000e 00        		.string	""
 4533               	.LC2:
 4534 000f 563A 2000 		.string	"V: "
 4535 0013 00        		.string	""
 4536               	.LC3:
 4537 0014 5553 422E 		.string	"USB.405"
 4537      3430 3500 
 4538               		.section	.text.main,"ax",@progbits
 4539               	.global	main
 4541               	main:
 4542               	.LFB58:
 4543               	.LSM808:
 4544 0000 4F92      		push r4
 4545 0002 5F92      		push r5
 4546 0004 7F92      		push r7
 4547 0006 8F92      		push r8
 4548 0008 9F92      		push r9
 4549 000a AF92      		push r10
 4550 000c BF92      		push r11
 4551 000e CF92      		push r12
 4552 0010 DF92      		push r13
 4553 0012 EF92      		push r14
 4554 0014 FF92      		push r15
 4555 0016 0F93      		push r16
 4556 0018 1F93      		push r17
 4557 001a DF93      		push r29
 4558 001c CF93      		push r28
 4559 001e 0F92      		push __tmp_reg__
 4560 0020 CDB7      		in r28,__SP_L__
 4561 0022 DEB7      		in r29,__SP_H__
 4562               	/* prologue: function */
 4563               	/* frame size = 1 */
 4564               	/* stack size = 16 */
 4565               	.L__stack_usage = 16
 4566               	.LVL368:
 4567               	.LSM809:
 4568 0024 80E8      		ldi r24,lo8(-128)
 4569 0026 8093 6100 		sts 97,r24
 4570 002a 1092 6100 		sts 97,__zero_reg__
 4571               	.LSM810:
 4572 002e 0E94 0000 		call usb_init
 4573               	.L232:
 4574               	.LBB121:
 4575               	.LBB122:
 4576               	.LSM811:
 4577 0032 8091 0000 		lds r24,usb_configuration
 4578               	.LBE122:
 4579               	.LBE121:
 4580               	.LSM812:
 4581 0036 8823      		tst r24
 4582 0038 01F0      		breq .L232
 4583               	.LVL369:
 4584               	.LBB123:
 4585               	.LBB124:
 4586               	.LSM813:
 4587 003a 8FEF      		 ldi r24,lo8(3199999)
 4588 003c 93ED      	    ldi r25,hi8(3199999)
 4589 003e A0E3      	    ldi r26,hlo8(3199999)
 4590 0040 8150      	    1:subi r24,1
 4591 0042 9040      	    sbci r25,0
 4592 0044 A040      	    sbci r26,0
 4593 0046 01F4      	    brne 1b
 4594 0048 00C0      		rjmp .
 4595 004a 0000      		nop
 4596               	.LBE124:
 4597               	.LBE123:
 4598               	.LSM814:
 4599               	/* #APP */
 4600               	 ;  951 "TWI_Slave.c" 1
 4601 004c 7894      		sei
 4602               	 ;  0 "" 2
 4603               	.LSM815:
 4604               	/* #NOAPP */
 4605 004e 0E94 0000 		call slaveinit
 4606               	.LSM816:
 4607 0052 88E3      		ldi r24,lo8(56)
 4608 0054 66E0      		ldi r22,lo8(6)
 4609 0056 4CE0      		ldi r20,lo8(12)
 4610 0058 0E94 0000 		call lcd_initialize
 4611               	.LSM817:
 4612 005c 80E0      		ldi r24,lo8(.LC1)
 4613 005e 90E0      		ldi r25,hi8(.LC1)
 4614 0060 0E94 0000 		call lcd_puts
 4615               	.LSM818:
 4616 0064 84E6      		ldi r24,lo8(100)
 4617 0066 90E0      		ldi r25,hi8(100)
 4618 0068 0E94 0000 		call delay_ms
 4619               	.LSM819:
 4620 006c 0E94 0000 		call lcd_cls
 4621               	.LSM820:
 4622 0070 80E0      		ldi r24,lo8(.LC2)
 4623 0072 90E0      		ldi r25,hi8(.LC2)
 4624 0074 0E94 0000 		call lcd_puts
 4625               	.LSM821:
 4626 0078 80E0      		ldi r24,lo8(.LC3)
 4627 007a 90E0      		ldi r25,hi8(.LC3)
 4628 007c 0E94 0000 		call lcd_puts
 4629               	.LSM822:
 4630 0080 81E0      		ldi r24,lo8(1)
 4631 0082 0E94 0000 		call lcd_clr_line
 4632               	.LVL370:
 4633               	.LSM823:
 4634 0086 1092 B200 		sts 178,__zero_reg__
 4635               	.LSM824:
 4636 008a 8091 B100 		lds r24,177
 4637 008e 8160      		ori r24,lo8(1)
 4638 0090 8093 B100 		sts 177,r24
 4639               	.LSM825:
 4640 0094 8091 7000 		lds r24,112
 4641 0098 8160      		ori r24,lo8(1)
 4642 009a 8093 7000 		sts 112,r24
 4643               	.LSM826:
 4644 009e 1092 B000 		sts 176,__zero_reg__
 4645               	.LSM827:
 4646               	/* #APP */
 4647               	 ;  995 "TWI_Slave.c" 1
 4648 00a2 7894      		sei
 4649               	 ;  0 "" 2
 4650               	.LSM828:
 4651               	/* #NOAPP */
 4652 00a4 4424      		clr r4
 4653 00a6 5524      		clr r5
 4654               	.LSM829:
 4655 00a8 00E1      		ldi r16,lo8(16)
 4656 00aa D02E      		mov r13,r16
 4657               	.LBB125:
 4658               	.LSM830:
 4659 00ac 13E3      		ldi r17,lo8(51)
 4660 00ae C12E      		mov r12,r17
 4661               	.LSM831:
 4662 00b0 B5EE      		ldi r27,lo8(-27)
 4663 00b2 BB2E      		mov r11,r27
 4664               	.LBB127:
 4665               	.LSM832:
 4666 00b4 AFEA      		ldi r26,lo8(-81)
 4667 00b6 AA2E      		mov r10,r26
 4668               	.LBB129:
 4669               	.LSM833:
 4670 00b8 0FEF      		ldi r16,lo8(-1)
 4671 00ba 1FEF      		ldi r17,hi8(-1)
 4672               	.LSM834:
 4673 00bc F4E4      		ldi r31,lo8(68)
 4674 00be 9F2E      		mov r9,r31
 4675               	.LSM835:
 4676 00c0 E5E4      		ldi r30,lo8(69)
 4677 00c2 8E2E      		mov r8,r30
 4678               	.LBE129:
 4679               	.LBE127:
 4680               	.LSM836:
 4681 00c4 71EE      		ldi r23,lo8(-31)
 4682 00c6 772E      		mov r7,r23
 4683               	.LVL371:
 4684               	.L277:
 4685               	.LBE125:
 4686               	.LSM837:
 4687 00c8 0894      		sec
 4688 00ca 411C      		adc r4,__zero_reg__
 4689 00cc 511C      		adc r5,__zero_reg__
 4690               	.LVL372:
 4691               	.LSM838:
 4692 00ce 9FEF      		ldi r25,lo8(-20481)
 4693 00d0 4916      		cp r4,r25
 4694 00d2 9FEA      		ldi r25,hi8(-20481)
 4695 00d4 5906      		cpc r5,r25
 4696 00d6 01F4      		brne .L233
 4697               	.LVL373:
 4698               	.LSM839:
 4699 00d8 81B3      		in r24,49-32
 4700 00da 8D25      		eor r24,r13
 4701 00dc 81BB      		out 49-32,r24
 4702               	.LSM840:
 4703 00de 4424      		clr r4
 4704 00e0 5524      		clr r5
 4705               	.LVL374:
 4706               	.L233:
 4707               	.LSM841:
 4708 00e2 80E0      		ldi r24,lo8(buffer)
 4709 00e4 90E0      		ldi r25,hi8(buffer)
 4710 00e6 60E0      		ldi r22,lo8(0)
 4711 00e8 0E94 0000 		call usb_rawhid_recv
 4712               	.LVL375:
 4713               	.LSM842:
 4714 00ec 1816      		cp __zero_reg__,r24
 4715 00ee 04F0      		brlt .+2
 4716 00f0 00C0      		rjmp .L234
 4717               	.LBB133:
 4718               	.LSM843:
 4719               	/* #APP */
 4720               	 ;  1020 "TWI_Slave.c" 1
 4721 00f2 F894      		cli
 4722               	 ;  0 "" 2
 4723               	.LVL376:
 4724               	.LSM844:
 4725               	/* #NOAPP */
 4726 00f4 7091 0000 		lds r23,buffer+16
 4727               	.LVL377:
 4728               	.LSM845:
 4729 00f8 7093 0000 		sts sendbuffer+5,r23
 4730               	.LSM846:
 4731 00fc C092 0000 		sts sendbuffer,r12
 4732               	.LSM847:
 4733 0100 80E0      		ldi r24,lo8(sendbuffer)
 4734 0102 90E0      		ldi r25,hi8(sendbuffer)
 4735               	.LVL378:
 4736 0104 62E3      		ldi r22,lo8(50)
 4737 0106 7983      		std Y+1,r23
 4738 0108 0E94 0000 		call usb_rawhid_send
 4739               	.LVL379:
 4740               	.LSM848:
 4741 010c 1092 0000 		sts sendbuffer,__zero_reg__
 4742               	.LSM849:
 4743 0110 1092 0000 		sts sendbuffer+5,__zero_reg__
 4744               	.LSM850:
 4745 0114 1092 0000 		sts sendbuffer+6,__zero_reg__
 4746               	.LSM851:
 4747 0118 7981      		ldd r23,Y+1
 4748 011a 723E      		cpi r23,lo8(-30)
 4749 011c 01F4      		brne .+2
 4750 011e 00C0      		rjmp .L237
 4751 0120 743E      		cpi r23,lo8(-28)
 4752 0122 01F4      		brne .+2
 4753 0124 00C0      		rjmp .L238
 4754 0126 703E      		cpi r23,lo8(-32)
 4755 0128 01F0      		breq .+2
 4756 012a 00C0      		rjmp .L282
 4757               	.LSM852:
 4758 012c 1092 0000 		sts ringbufferstatus,__zero_reg__
 4759               	.LSM853:
 4760 0130 1092 0000 		sts motorstatus,__zero_reg__
 4761               	.LSM854:
 4762 0134 7092 0000 		sts sendbuffer,r7
 4763               	.LSM855:
 4764 0138 8091 0000 		lds r24,abschnittnummer
 4765 013c 9091 0000 		lds r25,abschnittnummer+1
 4766 0140 8093 0000 		sts sendbuffer+5,r24
 4767               	.LSM856:
 4768 0144 8091 0000 		lds r24,ladeposition
 4769 0148 8093 0000 		sts sendbuffer+6,r24
 4770               	.LSM857:
 4771 014c 80E0      		ldi r24,lo8(sendbuffer)
 4772 014e 90E0      		ldi r25,hi8(sendbuffer)
 4773 0150 62E3      		ldi r22,lo8(50)
 4774 0152 0E94 0000 		call usb_rawhid_send
 4775               	.LSM858:
 4776 0156 1092 0000 		sts sendbuffer,__zero_reg__
 4777               	.LSM859:
 4778 015a 1092 0000 		sts sendbuffer+5,__zero_reg__
 4779               	.LSM860:
 4780 015e 1092 0000 		sts sendbuffer+6,__zero_reg__
 4781               	.LSM861:
 4782 0162 1092 0000 		sts ladeposition,__zero_reg__
 4783               	.LSM862:
 4784 0166 1092 0000 		sts AbschnittCounter+1,__zero_reg__
 4785 016a 1092 0000 		sts AbschnittCounter,__zero_reg__
 4786               	.LSM863:
 4787 016e 1092 0000 		sts StepCounterA+1,__zero_reg__
 4788 0172 1092 0000 		sts StepCounterA,__zero_reg__
 4789               	.LSM864:
 4790 0176 1092 0000 		sts StepCounterB+1,__zero_reg__
 4791 017a 1092 0000 		sts StepCounterB,__zero_reg__
 4792               	.LSM865:
 4793 017e 1092 0000 		sts StepCounterC+1,__zero_reg__
 4794 0182 1092 0000 		sts StepCounterC,__zero_reg__
 4795               	.LSM866:
 4796 0186 1092 0000 		sts StepCounterD+1,__zero_reg__
 4797 018a 1092 0000 		sts StepCounterD,__zero_reg__
 4798               	.LSM867:
 4799 018e 1092 0000 		sts CounterA+1,__zero_reg__
 4800 0192 1092 0000 		sts CounterA,__zero_reg__
 4801               	.LSM868:
 4802 0196 1092 0000 		sts CounterB+1,__zero_reg__
 4803 019a 1092 0000 		sts CounterB,__zero_reg__
 4804               	.LSM869:
 4805 019e 1092 0000 		sts CounterC+1,__zero_reg__
 4806 01a2 1092 0000 		sts CounterC,__zero_reg__
 4807               	.LSM870:
 4808 01a6 1092 0000 		sts CounterD+1,__zero_reg__
 4809 01aa 1092 0000 		sts CounterD,__zero_reg__
 4810               	.LSM871:
 4811 01ae 00C0      		rjmp .L239
 4812               	.L237:
 4813               	.LSM872:
 4814 01b0 8091 0000 		lds r24,buffer+20
 4815 01b4 8093 0000 		sts PWM,r24
 4816               	.LSM873:
 4817 01b8 8091 0000 		lds r24,PWM
 4818 01bc 8823      		tst r24
 4819 01be 01F0      		breq .+2
 4820 01c0 00C0      		rjmp .L239
 4821               	.LSM874:
 4822 01c2 5F98      		cbi 43-32,7
 4823 01c4 00C0      		rjmp .L239
 4824               	.L238:
 4825               	.LSM875:
 4826 01c6 8091 0000 		lds r24,buffer+8
 4827 01ca 8823      		tst r24
 4828 01cc 01F0      		breq .L240
 4829               	.LSM876:
 4830 01ce 5C9A      		sbi 43-32,4
 4831 01d0 00C0      		rjmp .L241
 4832               	.L240:
 4833               	.LSM877:
 4834 01d2 5C98      		cbi 43-32,4
 4835               	.L241:
 4836               	.LSM878:
 4837 01d4 B092 0000 		sts sendbuffer,r11
 4838               	.LSM879:
 4839 01d8 1092 0000 		sts sendbuffer,__zero_reg__
 4840               	.LSM880:
 4841 01dc 1092 0000 		sts sendbuffer+5,__zero_reg__
 4842               	.LSM881:
 4843 01e0 1092 0000 		sts sendbuffer+6,__zero_reg__
 4844               	.LSM882:
 4845 01e4 00C0      		rjmp .L239
 4846               	.L282:
 4847               	.LBB126:
 4848               	.LSM883:
 4849 01e6 8091 0000 		lds r24,buffer+18
 4850               	.LVL380:
 4851               	.LSM884:
 4852 01ea 2091 0000 		lds r18,buffer+19
 4853               	.LVL381:
 4854               	.LSM885:
 4855 01ee F82E      		mov r15,r24
 4856 01f0 EE24      		clr r14
 4857 01f2 F092 0000 		sts abschnittnummer+1,r15
 4858 01f6 E092 0000 		sts abschnittnummer,r14
 4859               	.LSM886:
 4860 01fa 8091 0000 		lds r24,abschnittnummer
 4861 01fe 9091 0000 		lds r25,abschnittnummer+1
 4862               	.LVL382:
 4863 0202 820F      		add r24,r18
 4864 0204 911D      		adc r25,__zero_reg__
 4865 0206 9093 0000 		sts abschnittnummer+1,r25
 4866 020a 8093 0000 		sts abschnittnummer,r24
 4867               	.LSM887:
 4868 020e 8091 0000 		lds r24,buffer+20
 4869 0212 8093 0000 		sts PWM,r24
 4870               	.LSM888:
 4871 0216 8091 0000 		lds r24,abschnittnummer
 4872 021a 9091 0000 		lds r25,abschnittnummer+1
 4873 021e 0097      		sbiw r24,0
 4874 0220 01F0      		breq .L242
 4875 0222 00C0      		rjmp .L243
 4876               	.LVL383:
 4877               	.L244:
 4878               	.LBB128:
 4879               	.LSM889:
 4880 0224 FA01      		movw r30,r20
 4881 0226 E20F      		add r30,r18
 4882 0228 F31F      		adc r31,r19
 4883 022a E050      		subi r30,lo8(-(CNCDaten))
 4884 022c F040      		sbci r31,hi8(-(CNCDaten))
 4885 022e 1082      		st Z,__zero_reg__
 4886 0230 2F5F      		subi r18,lo8(-(1))
 4887 0232 3F4F      		sbci r19,hi8(-(1))
 4888               	.LSM890:
 4889 0234 2032      		cpi r18,32
 4890 0236 3105      		cpc r19,__zero_reg__
 4891 0238 01F4      		brne .L244
 4892               	.LSM891:
 4893 023a 0196      		adiw r24,1
 4894               	.LSM892:
 4895 023c 8430      		cpi r24,4
 4896 023e 9105      		cpc r25,__zero_reg__
 4897 0240 01F4      		brne .L245
 4898 0242 00C0      		rjmp .L285
 4899               	.LVL384:
 4900               	.L242:
 4901               	.LBE128:
 4902               	.LSM893:
 4903 0244 80E0      		ldi r24,lo8(0)
 4904 0246 90E0      		ldi r25,hi8(0)
 4905               	.LVL385:
 4906               	.L245:
 4907               	.LBE126:
 4908               	.LBE133:
 4909               	.LSM894:
 4910 0248 20E0      		ldi r18,lo8(0)
 4911 024a 30E0      		ldi r19,hi8(0)
 4912               	.LBB134:
 4913               	.LBB132:
 4914               	.LBB130:
 4915               	.LSM895:
 4916 024c AC01      		movw r20,r24
 4917 024e 65E0      		ldi r22,5
 4918 0250 440F      	1:	lsl r20
 4919 0252 551F      		rol r21
 4920 0254 6A95      		dec r22
 4921 0256 01F4      		brne 1b
 4922 0258 480F      		add r20,r24
 4923 025a 591F      		adc r21,r25
 4924 025c 00C0      		rjmp .L244
 4925               	.LVL386:
 4926               	.L285:
 4927               	.LSM896:
 4928 025e 1092 0000 		sts ladeposition,__zero_reg__
 4929               	.LSM897:
 4930 0262 1093 0000 		sts endposition+1,r17
 4931 0266 0093 0000 		sts endposition,r16
 4932               	.LSM898:
 4933 026a 1092 0000 		sts anschlagstatus,__zero_reg__
 4934               	.LSM899:
 4935 026e 1092 0000 		sts motorstatus,__zero_reg__
 4936               	.LSM900:
 4937 0272 1092 0000 		sts ringbufferstatus,__zero_reg__
 4938               	.LSM901:
 4939 0276 8091 0000 		lds r24,ringbufferstatus
 4940 027a 8068      		ori r24,lo8(-128)
 4941 027c 8093 0000 		sts ringbufferstatus,r24
 4942               	.LSM902:
 4943 0280 1092 0000 		sts AbschnittCounter+1,__zero_reg__
 4944 0284 1092 0000 		sts AbschnittCounter,__zero_reg__
 4945               	.LSM903:
 4946 0288 81E0      		ldi r24,lo8(1)
 4947 028a 7983      		std Y+1,r23
 4948 028c 0E94 0000 		call lcd_clr_line
 4949               	.LSM904:
 4950 0290 1092 0000 		sts sendbuffer+5,__zero_reg__
 4951               	.LSM905:
 4952 0294 7981      		ldd r23,Y+1
 4953 0296 703F      		cpi r23,lo8(-16)
 4954 0298 01F4      		brne .L247
 4955               	.LSM906:
 4956 029a 7093 0000 		sts sendbuffer+5,r23
 4957               	.LSM907:
 4958 029e 8092 0000 		sts sendbuffer,r8
 4959               	.LSM908:
 4960 02a2 8091 0000 		lds r24,cncstatus
 4961 02a6 8860      		ori r24,lo8(8)
 4962 02a8 00C0      		rjmp .L284
 4963               	.L247:
 4964               	.LSM909:
 4965 02aa 9092 0000 		sts sendbuffer,r9
 4966               	.LSM910:
 4967 02ae 8091 0000 		lds r24,cncstatus
 4968 02b2 877F      		andi r24,lo8(-9)
 4969               	.L284:
 4970 02b4 8093 0000 		sts cncstatus,r24
 4971               	.LSM911:
 4972 02b8 80E0      		ldi r24,lo8(sendbuffer)
 4973 02ba 90E0      		ldi r25,hi8(sendbuffer)
 4974 02bc 62E3      		ldi r22,lo8(50)
 4975 02be 0E94 0000 		call usb_rawhid_send
 4976               	.LSM912:
 4977 02c2 1092 0000 		sts sendbuffer,__zero_reg__
 4978               	.LSM913:
 4979 02c6 1092 0000 		sts sendbuffer+5,__zero_reg__
 4980               	.LSM914:
 4981 02ca 1092 0000 		sts sendbuffer+6,__zero_reg__
 4982               	.L243:
 4983               	.LBE130:
 4984               	.LSM915:
 4985 02ce 8091 0000 		lds r24,buffer+17
 4986 02d2 81FF      		sbrs r24,1
 4987 02d4 00C0      		rjmp .L249
 4988               	.LSM916:
 4989 02d6 8091 0000 		lds r24,ringbufferstatus
 4990 02da 8061      		ori r24,lo8(16)
 4991 02dc 8093 0000 		sts ringbufferstatus,r24
 4992               	.LSM917:
 4993 02e0 8091 0000 		lds r24,ringbufferstatus
 4994 02e4 87FF      		sbrs r24,7
 4995 02e6 00C0      		rjmp .L249
 4996               	.LSM918:
 4997 02e8 8091 0000 		lds r24,abschnittnummer
 4998 02ec 9091 0000 		lds r25,abschnittnummer+1
 4999 02f0 9093 0000 		sts endposition+1,r25
 5000 02f4 8093 0000 		sts endposition,r24
 5001               	.L249:
 5002               	.LBB131:
 5003               	.LSM919:
 5004 02f8 4091 0000 		lds r20,abschnittnummer
 5005 02fc 5091 0000 		lds r21,abschnittnummer+1
 5006               	.LVL387:
 5007               	.LSM920:
 5008 0300 4370      		andi r20,lo8(3)
 5009               	.LVL388:
 5010               	.LSM921:
 5011 0302 8091 0000 		lds r24,abschnittnummer
 5012 0306 9091 0000 		lds r25,abschnittnummer+1
 5013               	.LVL389:
 5014 030a 80E0      		ldi r24,lo8(0)
 5015 030c 90E0      		ldi r25,hi8(0)
 5016               	.LSM922:
 5017 030e 50E0      		ldi r21,lo8(0)
 5018 0310 9A01      		movw r18,r20
 5019 0312 B5E0      		ldi r27,5
 5020 0314 220F      	1:	lsl r18
 5021 0316 331F      		rol r19
 5022 0318 BA95      		dec r27
 5023 031a 01F4      		brne 1b
 5024 031c 240F      		add r18,r20
 5025 031e 351F      		adc r19,r21
 5026               	.LVL390:
 5027               	.L250:
 5028               	.LSM923:
 5029 0320 FC01      		movw r30,r24
 5030 0322 E050      		subi r30,lo8(-(buffer))
 5031 0324 F040      		sbci r31,hi8(-(buffer))
 5032 0326 4081      		ld r20,Z
 5033 0328 F901      		movw r30,r18
 5034 032a E80F      		add r30,r24
 5035 032c F91F      		adc r31,r25
 5036 032e E050      		subi r30,lo8(-(CNCDaten))
 5037 0330 F040      		sbci r31,hi8(-(CNCDaten))
 5038 0332 4083      		st Z,r20
 5039 0334 0196      		adiw r24,1
 5040               	.LSM924:
 5041 0336 8032      		cpi r24,32
 5042 0338 9105      		cpc r25,__zero_reg__
 5043 033a 01F4      		brne .L250
 5044               	.LBE131:
 5045               	.LSM925:
 5046 033c 8091 0000 		lds r24,abschnittnummer
 5047 0340 9091 0000 		lds r25,abschnittnummer+1
 5048 0344 0097      		sbiw r24,0
 5049 0346 01F4      		brne .L251
 5050               	.LSM926:
 5051 0348 8091 0000 		lds r24,endposition
 5052 034c 9091 0000 		lds r25,endposition+1
 5053 0350 0097      		sbiw r24,0
 5054 0352 01F0      		breq .L251
 5055               	.LSM927:
 5056 0354 8091 0000 		lds r24,abschnittnummer
 5057 0358 9091 0000 		lds r25,abschnittnummer+1
 5058 035c 8093 0000 		sts sendbuffer+5,r24
 5059               	.LSM928:
 5060 0360 8091 0000 		lds r24,ladeposition
 5061 0364 8093 0000 		sts sendbuffer+6,r24
 5062               	.LSM929:
 5063 0368 A092 0000 		sts sendbuffer,r10
 5064               	.LSM930:
 5065 036c 80E0      		ldi r24,lo8(sendbuffer)
 5066 036e 90E0      		ldi r25,hi8(sendbuffer)
 5067 0370 62E3      		ldi r22,lo8(50)
 5068 0372 0E94 0000 		call usb_rawhid_send
 5069               	.LSM931:
 5070 0376 1092 0000 		sts sendbuffer,__zero_reg__
 5071               	.LSM932:
 5072 037a 1092 0000 		sts sendbuffer+5,__zero_reg__
 5073               	.LSM933:
 5074 037e 1092 0000 		sts sendbuffer+6,__zero_reg__
 5075               	.L251:
 5076               	.LSM934:
 5077 0382 8091 0000 		lds r24,ringbufferstatus
 5078 0386 8F77      		andi r24,lo8(127)
 5079 0388 8093 0000 		sts ringbufferstatus,r24
 5080               	.LSM935:
 5081 038c 8091 0000 		lds r24,abschnittnummer
 5082 0390 9091 0000 		lds r25,abschnittnummer+1
 5083 0394 8130      		cpi r24,1
 5084 0396 9105      		cpc r25,__zero_reg__
 5085 0398 01F0      		breq .L252
 5086               	.LSM936:
 5087 039a 8091 0000 		lds r24,abschnittnummer
 5088 039e 9091 0000 		lds r25,abschnittnummer+1
 5089 03a2 0097      		sbiw r24,0
 5090 03a4 01F4      		brne .L239
 5091 03a6 8091 0000 		lds r24,ringbufferstatus
 5092 03aa 84FF      		sbrs r24,4
 5093 03ac 00C0      		rjmp .L239
 5094               	.L252:
 5095               	.LSM937:
 5096 03ae 8091 0000 		lds r24,ringbufferstatus
 5097 03b2 8F7E      		andi r24,lo8(-17)
 5098 03b4 8093 0000 		sts ringbufferstatus,r24
 5099               	.LSM938:
 5100 03b8 8091 0000 		lds r24,ringbufferstatus
 5101 03bc 8460      		ori r24,lo8(4)
 5102 03be 8093 0000 		sts ringbufferstatus,r24
 5103               	.LVL391:
 5104               	.L239:
 5105               	.LBE132:
 5106               	.LSM939:
 5107               	/* #APP */
 5108               	 ;  1220 "TWI_Slave.c" 1
 5109 03c2 7894      		sei
 5110               	 ;  0 "" 2
 5111               	.LVL392:
 5112               	/* #NOAPP */
 5113               	.L234:
 5114               	.LBE134:
 5115               	.LSM940:
 5116 03c4 8091 0000 		lds r24,PWM
 5117 03c8 8823      		tst r24
 5118 03ca 01F0      		breq .L253
 5119               	.LSM941:
 5120 03cc 9091 0000 		lds r25,pwmposition
 5121 03d0 8091 0000 		lds r24,PWM
 5122 03d4 8917      		cp r24,r25
 5123 03d6 00F4      		brsh .L254
 5124               	.LSM942:
 5125 03d8 5F98      		cbi 43-32,7
 5126               	.LSM943:
 5127 03da 109A      		sbi 34-32,0
 5128 03dc 00C0      		rjmp .L253
 5129               	.L254:
 5130               	.LSM944:
 5131 03de 5F9A      		sbi 43-32,7
 5132               	.LSM945:
 5133 03e0 1098      		cbi 34-32,0
 5134               	.L253:
 5135               	.LSM946:
 5136 03e2 8091 0000 		lds r24,ringbufferstatus
 5137 03e6 82FF      		sbrs r24,2
 5138 03e8 00C0      		rjmp .L255
 5139               	.LBB135:
 5140               	.LSM947:
 5141               	/* #APP */
 5142               	 ;  1248 "TWI_Slave.c" 1
 5143 03ea F894      		cli
 5144               	 ;  0 "" 2
 5145               	.LSM948:
 5146               	/* #NOAPP */
 5147 03ec 8091 0000 		lds r24,ringbufferstatus
 5148 03f0 8B7F      		andi r24,lo8(-5)
 5149 03f2 8093 0000 		sts ringbufferstatus,r24
 5150               	.LSM949:
 5151 03f6 1092 0000 		sts ladeposition,__zero_reg__
 5152               	.LSM950:
 5153 03fa 1092 0000 		sts AbschnittCounter+1,__zero_reg__
 5154 03fe 1092 0000 		sts AbschnittCounter,__zero_reg__
 5155               	.LSM951:
 5156 0402 80E0      		ldi r24,lo8(CNCDaten)
 5157 0404 90E0      		ldi r25,hi8(CNCDaten)
 5158 0406 0E94 0000 		call AbschnittLaden
 5159               	.LVL393:
 5160               	.LSM952:
 5161 040a 9091 0000 		lds r25,ladeposition
 5162 040e 9F5F      		subi r25,lo8(-(1))
 5163 0410 9093 0000 		sts ladeposition,r25
 5164               	.LSM953:
 5165 0414 8230      		cpi r24,lo8(2)
 5166 0416 01F4      		brne .L256
 5167               	.LSM954:
 5168 0418 8091 0000 		lds r24,ringbufferstatus
 5169               	.LVL394:
 5170 041c 8062      		ori r24,lo8(32)
 5171 041e 8093 0000 		sts ringbufferstatus,r24
 5172               	.L256:
 5173               	.LSM955:
 5174 0422 8091 0000 		lds r24,AbschnittCounter
 5175 0426 9091 0000 		lds r25,AbschnittCounter+1
 5176 042a 0196      		adiw r24,1
 5177 042c 9093 0000 		sts AbschnittCounter+1,r25
 5178 0430 8093 0000 		sts AbschnittCounter,r24
 5179               	.LSM956:
 5180               	/* #APP */
 5181               	 ;  1263 "TWI_Slave.c" 1
 5182 0434 7894      		sei
 5183               	 ;  0 "" 2
 5184               	/* #NOAPP */
 5185               	.L255:
 5186               	.LBE135:
 5187               	.LSM957:
 5188 0436 369B      		sbis 38-32,6
 5189 0438 00C0      		rjmp .L257
 5190               	.LSM958:
 5191 043a 8091 0000 		lds r24,anschlagstatus
 5192 043e 84FF      		sbrs r24,4
 5193 0440 00C0      		rjmp .L258
 5194               	.LSM959:
 5195 0442 8091 0000 		lds r24,anschlagstatus
 5196 0446 8F7E      		andi r24,lo8(-17)
 5197 0448 8093 0000 		sts anschlagstatus,r24
 5198 044c 00C0      		rjmp .L258
 5199               	.L257:
 5200               	.LSM960:
 5201 044e 80E0      		ldi r24,lo8(0)
 5202 0450 0E94 0000 		call AnschlagVonMotor
 5203               	.L258:
 5204               	.LSM961:
 5205 0454 8091 0000 		lds r24,StepCounterA
 5206 0458 9091 0000 		lds r25,StepCounterA+1
 5207 045c 0097      		sbiw r24,0
 5208 045e 01F0      		breq .L259
 5209               	.LSM962:
 5210 0460 2091 0000 		lds r18,CounterA
 5211 0464 3091 0000 		lds r19,CounterA+1
 5212 0468 8091 0000 		lds r24,DelayA
 5213 046c 9091 0000 		lds r25,DelayA+1
 5214 0470 2817      		cp r18,r24
 5215 0472 3907      		cpc r19,r25
 5216 0474 00F0      		brlo .L259
 5217 0476 8091 0000 		lds r24,anschlagstatus
 5218 047a 84FD      		sbrc r24,4
 5219 047c 00C0      		rjmp .L259
 5220               	.LSM963:
 5221               	/* #APP */
 5222               	 ;  1292 "TWI_Slave.c" 1
 5223 047e F894      		cli
 5224               	 ;  0 "" 2
 5225               	.LSM964:
 5226               	/* #NOAPP */
 5227 0480 4098      		cbi 40-32,0
 5228               	.LSM965:
 5229 0482 1092 0000 		sts CounterA+1,__zero_reg__
 5230 0486 1092 0000 		sts CounterA,__zero_reg__
 5231               	.LSM966:
 5232 048a 8091 0000 		lds r24,StepCounterA
 5233 048e 9091 0000 		lds r25,StepCounterA+1
 5234 0492 0197      		sbiw r24,1
 5235 0494 9093 0000 		sts StepCounterA+1,r25
 5236 0498 8093 0000 		sts StepCounterA,r24
 5237               	.LSM967:
 5238 049c 8091 0000 		lds r24,StepCounterA
 5239 04a0 9091 0000 		lds r25,StepCounterA+1
 5240 04a4 0097      		sbiw r24,0
 5241 04a6 01F4      		brne .L260
 5242               	.LSM968:
 5243 04a8 8091 0000 		lds r24,motorstatus
 5244 04ac 80FF      		sbrs r24,0
 5245 04ae 00C0      		rjmp .L260
 5246               	.LSM969:
 5247 04b0 80E0      		ldi r24,lo8(0)
 5248 04b2 0E94 0000 		call StepEndVonMotor
 5249               	.L260:
 5250               	.LSM970:
 5251               	/* #APP */
 5252               	 ;  1305 "TWI_Slave.c" 1
 5253 04b6 7894      		sei
 5254               	 ;  0 "" 2
 5255               	/* #NOAPP */
 5256 04b8 00C0      		rjmp .L261
 5257               	.L259:
 5258               	.LSM971:
 5259 04ba 409A      		sbi 40-32,0
 5260               	.LSM972:
 5261 04bc 8091 0000 		lds r24,StepCounterA
 5262 04c0 9091 0000 		lds r25,StepCounterA+1
 5263 04c4 0097      		sbiw r24,0
 5264 04c6 01F4      		brne .L261
 5265               	.LSM973:
 5266 04c8 429A      		sbi 40-32,2
 5267               	.L261:
 5268               	.LSM974:
 5269 04ca 379B      		sbis 38-32,7
 5270 04cc 00C0      		rjmp .L262
 5271               	.LSM975:
 5272 04ce 8091 0000 		lds r24,anschlagstatus
 5273 04d2 85FF      		sbrs r24,5
 5274 04d4 00C0      		rjmp .L263
 5275               	.LSM976:
 5276 04d6 8091 0000 		lds r24,anschlagstatus
 5277 04da 8F7D      		andi r24,lo8(-33)
 5278 04dc 8093 0000 		sts anschlagstatus,r24
 5279 04e0 00C0      		rjmp .L263
 5280               	.L262:
 5281               	.LSM977:
 5282 04e2 81E0      		ldi r24,lo8(1)
 5283 04e4 0E94 0000 		call AnschlagVonMotor
 5284               	.L263:
 5285               	.LSM978:
 5286 04e8 8091 0000 		lds r24,StepCounterB
 5287 04ec 9091 0000 		lds r25,StepCounterB+1
 5288 04f0 0097      		sbiw r24,0
 5289 04f2 01F0      		breq .L264
 5290               	.LSM979:
 5291 04f4 2091 0000 		lds r18,CounterB
 5292 04f8 3091 0000 		lds r19,CounterB+1
 5293 04fc 8091 0000 		lds r24,DelayB
 5294 0500 9091 0000 		lds r25,DelayB+1
 5295 0504 2817      		cp r18,r24
 5296 0506 3907      		cpc r19,r25
 5297 0508 00F0      		brlo .L264
 5298 050a 8091 0000 		lds r24,anschlagstatus
 5299 050e 85FD      		sbrc r24,5
 5300 0510 00C0      		rjmp .L264
 5301               	.LSM980:
 5302               	/* #APP */
 5303               	 ;  1360 "TWI_Slave.c" 1
 5304 0512 F894      		cli
 5305               	 ;  0 "" 2
 5306               	.LSM981:
 5307               	/* #NOAPP */
 5308 0514 4398      		cbi 40-32,3
 5309               	.LSM982:
 5310 0516 1092 0000 		sts CounterB+1,__zero_reg__
 5311 051a 1092 0000 		sts CounterB,__zero_reg__
 5312               	.LSM983:
 5313 051e 8091 0000 		lds r24,StepCounterB
 5314 0522 9091 0000 		lds r25,StepCounterB+1
 5315 0526 0197      		sbiw r24,1
 5316 0528 9093 0000 		sts StepCounterB+1,r25
 5317 052c 8093 0000 		sts StepCounterB,r24
 5318               	.LSM984:
 5319 0530 8091 0000 		lds r24,StepCounterB
 5320 0534 9091 0000 		lds r25,StepCounterB+1
 5321 0538 0097      		sbiw r24,0
 5322 053a 01F4      		brne .L265
 5323               	.LSM985:
 5324 053c 8091 0000 		lds r24,motorstatus
 5325 0540 81FF      		sbrs r24,1
 5326 0542 00C0      		rjmp .L265
 5327               	.LSM986:
 5328 0544 81E0      		ldi r24,lo8(1)
 5329 0546 0E94 0000 		call StepEndVonMotor
 5330               	.L265:
 5331               	.LSM987:
 5332               	/* #APP */
 5333               	 ;  1373 "TWI_Slave.c" 1
 5334 054a 7894      		sei
 5335               	 ;  0 "" 2
 5336               	/* #NOAPP */
 5337 054c 00C0      		rjmp .L266
 5338               	.L264:
 5339               	.LSM988:
 5340 054e 439A      		sbi 40-32,3
 5341               	.LSM989:
 5342 0550 8091 0000 		lds r24,StepCounterB
 5343 0554 9091 0000 		lds r25,StepCounterB+1
 5344 0558 0097      		sbiw r24,0
 5345 055a 01F4      		brne .L266
 5346               	.LSM990:
 5347 055c 459A      		sbi 40-32,5
 5348               	.L266:
 5349               	.LSM991:
 5350 055e 1E9B      		sbis 35-32,6
 5351 0560 00C0      		rjmp .L267
 5352               	.LSM992:
 5353 0562 8091 0000 		lds r24,anschlagstatus
 5354 0566 86FF      		sbrs r24,6
 5355 0568 00C0      		rjmp .L268
 5356               	.LSM993:
 5357 056a 8091 0000 		lds r24,anschlagstatus
 5358 056e 8F7B      		andi r24,lo8(-65)
 5359 0570 8093 0000 		sts anschlagstatus,r24
 5360 0574 00C0      		rjmp .L268
 5361               	.L267:
 5362               	.LSM994:
 5363 0576 82E0      		ldi r24,lo8(2)
 5364 0578 0E94 0000 		call AnschlagVonMotor
 5365               	.L268:
 5366               	.LSM995:
 5367 057c 8091 0000 		lds r24,StepCounterC
 5368 0580 9091 0000 		lds r25,StepCounterC+1
 5369 0584 0097      		sbiw r24,0
 5370 0586 01F0      		breq .L269
 5371               	.LSM996:
 5372 0588 2091 0000 		lds r18,CounterC
 5373 058c 3091 0000 		lds r19,CounterC+1
 5374 0590 8091 0000 		lds r24,DelayC
 5375 0594 9091 0000 		lds r25,DelayC+1
 5376 0598 2817      		cp r18,r24
 5377 059a 3907      		cpc r19,r25
 5378 059c 00F0      		brlo .L269
 5379 059e 8091 0000 		lds r24,anschlagstatus
 5380 05a2 86FD      		sbrc r24,6
 5381 05a4 00C0      		rjmp .L269
 5382               	.LSM997:
 5383               	/* #APP */
 5384               	 ;  1415 "TWI_Slave.c" 1
 5385 05a6 F894      		cli
 5386               	 ;  0 "" 2
 5387               	.LSM998:
 5388               	/* #NOAPP */
 5389 05a8 2898      		cbi 37-32,0
 5390               	.LSM999:
 5391 05aa 1092 0000 		sts CounterC+1,__zero_reg__
 5392 05ae 1092 0000 		sts CounterC,__zero_reg__
 5393               	.LSM1000:
 5394 05b2 8091 0000 		lds r24,StepCounterC
 5395 05b6 9091 0000 		lds r25,StepCounterC+1
 5396 05ba 0197      		sbiw r24,1
 5397 05bc 9093 0000 		sts StepCounterC+1,r25
 5398 05c0 8093 0000 		sts StepCounterC,r24
 5399               	.LSM1001:
 5400 05c4 8091 0000 		lds r24,StepCounterC
 5401 05c8 9091 0000 		lds r25,StepCounterC+1
 5402 05cc 0097      		sbiw r24,0
 5403 05ce 01F4      		brne .L270
 5404               	.LSM1002:
 5405 05d0 8091 0000 		lds r24,motorstatus
 5406 05d4 82FF      		sbrs r24,2
 5407 05d6 00C0      		rjmp .L270
 5408               	.LSM1003:
 5409 05d8 82E0      		ldi r24,lo8(2)
 5410 05da 0E94 0000 		call StepEndVonMotor
 5411               	.L270:
 5412               	.LSM1004:
 5413               	/* #APP */
 5414               	 ;  1427 "TWI_Slave.c" 1
 5415 05de 7894      		sei
 5416               	 ;  0 "" 2
 5417               	/* #NOAPP */
 5418 05e0 00C0      		rjmp .L271
 5419               	.L269:
 5420               	.LSM1005:
 5421 05e2 289A      		sbi 37-32,0
 5422               	.LSM1006:
 5423 05e4 8091 0000 		lds r24,StepCounterC
 5424 05e8 9091 0000 		lds r25,StepCounterC+1
 5425 05ec 0097      		sbiw r24,0
 5426 05ee 01F4      		brne .L271
 5427               	.LSM1007:
 5428 05f0 2A9A      		sbi 37-32,2
 5429               	.L271:
 5430               	.LSM1008:
 5431 05f2 1F9B      		sbis 35-32,7
 5432 05f4 00C0      		rjmp .L272
 5433               	.LSM1009:
 5434 05f6 8091 0000 		lds r24,anschlagstatus
 5435 05fa 87FF      		sbrs r24,7
 5436 05fc 00C0      		rjmp .L273
 5437               	.LSM1010:
 5438 05fe 8091 0000 		lds r24,anschlagstatus
 5439 0602 8F77      		andi r24,lo8(127)
 5440 0604 8093 0000 		sts anschlagstatus,r24
 5441 0608 00C0      		rjmp .L273
 5442               	.L272:
 5443               	.LSM1011:
 5444 060a 83E0      		ldi r24,lo8(3)
 5445 060c 0E94 0000 		call AnschlagVonMotor
 5446               	.L273:
 5447               	.LSM1012:
 5448 0610 8091 0000 		lds r24,StepCounterD
 5449 0614 9091 0000 		lds r25,StepCounterD+1
 5450 0618 0097      		sbiw r24,0
 5451 061a 01F0      		breq .L274
 5452               	.LSM1013:
 5453 061c 2091 0000 		lds r18,CounterD
 5454 0620 3091 0000 		lds r19,CounterD+1
 5455 0624 8091 0000 		lds r24,DelayD
 5456 0628 9091 0000 		lds r25,DelayD+1
 5457 062c 2817      		cp r18,r24
 5458 062e 3907      		cpc r19,r25
 5459 0630 00F0      		brlo .L274
 5460 0632 8091 0000 		lds r24,anschlagstatus
 5461 0636 87FD      		sbrc r24,7
 5462 0638 00C0      		rjmp .L274
 5463               	.LSM1014:
 5464               	/* #APP */
 5465               	 ;  1468 "TWI_Slave.c" 1
 5466 063a F894      		cli
 5467               	 ;  0 "" 2
 5468               	.LSM1015:
 5469               	/* #NOAPP */
 5470 063c 2B98      		cbi 37-32,3
 5471               	.LSM1016:
 5472 063e 1092 0000 		sts CounterD+1,__zero_reg__
 5473 0642 1092 0000 		sts CounterD,__zero_reg__
 5474               	.LSM1017:
 5475 0646 8091 0000 		lds r24,StepCounterD
 5476 064a 9091 0000 		lds r25,StepCounterD+1
 5477 064e 0197      		sbiw r24,1
 5478 0650 9093 0000 		sts StepCounterD+1,r25
 5479 0654 8093 0000 		sts StepCounterD,r24
 5480               	.LSM1018:
 5481 0658 8091 0000 		lds r24,StepCounterD
 5482 065c 9091 0000 		lds r25,StepCounterD+1
 5483 0660 0097      		sbiw r24,0
 5484 0662 01F4      		brne .L275
 5485               	.LSM1019:
 5486 0664 8091 0000 		lds r24,motorstatus
 5487 0668 83FF      		sbrs r24,3
 5488 066a 00C0      		rjmp .L275
 5489               	.LSM1020:
 5490 066c 83E0      		ldi r24,lo8(3)
 5491 066e 0E94 0000 		call StepEndVonMotor
 5492               	.L275:
 5493               	.LSM1021:
 5494               	/* #APP */
 5495               	 ;  1479 "TWI_Slave.c" 1
 5496 0672 7894      		sei
 5497               	 ;  0 "" 2
 5498               	/* #NOAPP */
 5499 0674 00C0      		rjmp .L276
 5500               	.L274:
 5501               	.LSM1022:
 5502 0676 2B9A      		sbi 37-32,3
 5503               	.LSM1023:
 5504 0678 8091 0000 		lds r24,StepCounterD
 5505 067c 9091 0000 		lds r25,StepCounterD+1
 5506 0680 0097      		sbiw r24,0
 5507 0682 01F4      		brne .L276
 5508               	.LSM1024:
 5509 0684 2D9A      		sbi 37-32,5
 5510               	.L276:
 5511               	.LSM1025:
 5512               	/* #APP */
 5513               	 ;  1497 "TWI_Slave.c" 1
 5514 0686 7894      		sei
 5515               	 ;  0 "" 2
 5516               	.LSM1026:
 5517               	/* #NOAPP */
 5518 0688 8FB1      		in r24,47-32
 5519               	.LSM1027:
 5520 068a 8FB1      		in r24,47-32
 5521               	.LSM1028:
 5522 068c 8091 0000 		lds r24,usbstatus
 5523               	.LSM1029:
 5524 0690 00C0      		rjmp .L277
 5525               	.LFE58:
 5527               	.global	rxdata
 5528               	.global	rxdata
 5529               		.section .bss
 5532               	rxdata:
 5533 0000 00        		.skip 1,0
 5534               	.global	do_output
 5535               	.global	do_output
 5538               	do_output:
 5539 0001 00        		.skip 1,0
 5540               	.global	liniencounter
 5541               	.global	liniencounter
 5544               	liniencounter:
 5545 0002 00        		.skip 1,0
 5546               	.global	timer0startwert
 5547               		.data
 5550               	timer0startwert:
 5551 001c 40        		.byte	64
 5552               	.global	usbstatus
 5553               	.global	usbstatus
 5554               		.section .bss
 5557               	usbstatus:
 5558 0003 00        		.skip 1,0
 5559               	.global	status
 5560               	.global	status
 5563               	status:
 5564 0004 00        		.skip 1,0
 5565               	.global	PWM
 5566               	.global	PWM
 5569               	PWM:
 5570 0005 00        		.skip 1,0
 5571               	.global	CounterA
 5572               	.global	CounterA
 5575               	CounterA:
 5576 0006 0000      		.skip 2,0
 5577               	.global	CounterB
 5578               	.global	CounterB
 5581               	CounterB:
 5582 0008 0000      		.skip 2,0
 5583               	.global	CounterC
 5584               	.global	CounterC
 5587               	CounterC:
 5588 000a 0000      		.skip 2,0
 5589               	.global	CounterD
 5590               	.global	CounterD
 5593               	CounterD:
 5594 000c 0000      		.skip 2,0
 5595               	.global	DelayA
 5596               		.data
 5599               	DelayA:
 5600 001d 1800      		.word	24
 5601               	.global	DelayB
 5604               	DelayB:
 5605 001f 1800      		.word	24
 5606               	.global	DelayC
 5609               	DelayC:
 5610 0021 1800      		.word	24
 5611               	.global	DelayD
 5614               	DelayD:
 5615 0023 1800      		.word	24
 5616               	.global	StepCounterA
 5617               	.global	StepCounterA
 5618               		.section .bss
 5621               	StepCounterA:
 5622 000e 0000      		.skip 2,0
 5623               	.global	StepCounterB
 5624               	.global	StepCounterB
 5627               	StepCounterB:
 5628 0010 0000      		.skip 2,0
 5629               	.global	StepCounterC
 5630               	.global	StepCounterC
 5633               	StepCounterC:
 5634 0012 0000      		.skip 2,0
 5635               	.global	StepCounterD
 5636               	.global	StepCounterD
 5639               	StepCounterD:
 5640 0014 0000      		.skip 2,0
 5641               	.global	timer2Counter
 5642               	.global	timer2Counter
 5645               	timer2Counter:
 5646 0016 0000      		.skip 2,0
 5647               		.comm ADCWert16,3,1
 5648               		.comm buffer_adr,1,1
 5649               		.lcomm buffer,32
 5650               		.lcomm sendbuffer,32
 5651               		.lcomm ringbufferstatus,1
 5652               		.lcomm motorstatus,1
 5653               		.lcomm abschnittnummer,2
 5654               		.lcomm ladeposition,1
 5655               		.lcomm AbschnittCounter,2
 5656               		.lcomm CNCDaten,132
 5657               		.data
 5660               	endposition:
 5661 0025 FFFF      		.word	-1
 5662               		.lcomm anschlagstatus,1
 5663               		.lcomm cncstatus,1
 5664               		.lcomm pwmposition,1
 5665               		.lcomm richtung,1
 5666               		.section	.progmem.data,"a",@progbits
 5669               	descriptor_list:
 5670 0000 0001      		.word	256
 5671 0002 0000      		.word	0
 5672 0004 0000      		.word	device_descriptor
 5673 0006 12        		.byte	18
 5674 0007 0002      		.word	512
 5675 0009 0000      		.word	0
 5676 000b 0000      		.word	config1_descriptor
 5677 000d 29        		.byte	41
 5678 000e 0022      		.word	8704
 5679 0010 0000      		.word	0
 5680 0012 0000      		.word	rawhid_hid_report_desc
 5681 0014 1C        		.byte	28
 5682 0015 0021      		.word	8448
 5683 0017 0000      		.word	0
 5684 0019 0000      		.word	config1_descriptor+18
 5685 001b 09        		.byte	9
 5686 001c 0003      		.word	768
 5687 001e 0000      		.word	0
 5688 0020 0000      		.word	string0
 5689 0022 04        		.byte	4
 5690 0023 0103      		.word	769
 5691 0025 0904      		.word	1033
 5692 0027 0000      		.word	string1
 5693 0029 22        		.byte	34
 5694 002a 0203      		.word	770
 5695 002c 0904      		.word	1033
 5696 002e 0000      		.word	string2
 5697 0030 10        		.byte	16
 5698               		.lcomm usb_configuration,1
 5701               	endpoint_config_table:
 5702 0031 01        		.byte	1
 5703 0032 C1        		.byte	-63
 5704 0033 26        		.byte	38
 5705 0034 01        		.byte	1
 5706 0035 C0        		.byte	-64
 5707 0036 26        		.byte	38
 5708 0037 00        		.byte	0
 5709 0038 00        		.byte	0
 5710               		.lcomm rx_timeout_count,1
 5711               		.lcomm tx_timeout_count,1
 5712               		.data
 5713               	.LC4:
 5714 0027 4D4F 00   		.string	"MO"
 5715               	.LC5:
 5716 002a 4449 00   		.string	"DI"
 5717               	.LC6:
 5718 002d 4D49 00   		.string	"MI"
 5719               	.LC7:
 5720 0030 444F 00   		.string	"DO"
 5721               	.LC8:
 5722 0033 4652 00   		.string	"FR"
 5723               	.LC9:
 5724 0036 5341 00   		.string	"SA"
 5725               	.LC10:
 5726 0039 534F 00   		.string	"SO"
 5729               	C.246.4412:
 5730 003c 0000      		.word	.LC4
 5731 003e 0000      		.word	.LC5
 5732 0040 0000      		.word	.LC6
 5733 0042 0000      		.word	.LC7
 5734 0044 0000      		.word	.LC8
 5735 0046 0000      		.word	.LC9
 5736 0048 0000      		.word	.LC10
 5737               		.section	.progmem.data
 5740               	device_descriptor:
 5741 0039 12        		.byte	18
 5742 003a 01        		.byte	1
 5743 003b 00        		.byte	0
 5744 003c 02        		.byte	2
 5745 003d 00        		.byte	0
 5746 003e 00        		.byte	0
 5747 003f 00        		.byte	0
 5748 0040 20        		.byte	32
 5749 0041 C0        		.byte	-64
 5750 0042 16        		.byte	22
 5751 0043 80        		.byte	-128
 5752 0044 04        		.byte	4
 5753 0045 00        		.byte	0
 5754 0046 01        		.byte	1
 5755 0047 01        		.byte	1
 5756 0048 02        		.byte	2
 5757 0049 00        		.byte	0
 5758 004a 01        		.byte	1
 5761               	config1_descriptor:
 5762 004b 09        		.byte	9
 5763 004c 02        		.byte	2
 5764 004d 29        		.byte	41
 5765 004e 00        		.byte	0
 5766 004f 01        		.byte	1
 5767 0050 01        		.byte	1
 5768 0051 00        		.byte	0
 5769 0052 C0        		.byte	-64
 5770 0053 32        		.byte	50
 5771 0054 09        		.byte	9
 5772 0055 04        		.byte	4
 5773 0056 00        		.byte	0
 5774 0057 00        		.byte	0
 5775 0058 02        		.byte	2
 5776 0059 03        		.byte	3
 5777 005a 00        		.byte	0
 5778 005b 00        		.byte	0
 5779 005c 00        		.byte	0
 5780 005d 09        		.byte	9
 5781 005e 21        		.byte	33
 5782 005f 11        		.byte	17
 5783 0060 01        		.byte	1
 5784 0061 00        		.byte	0
 5785 0062 01        		.byte	1
 5786 0063 22        		.byte	34
 5787 0064 1C        		.byte	28
 5788 0065 00        		.byte	0
 5789 0066 07        		.byte	7
 5790 0067 05        		.byte	5
 5791 0068 81        		.byte	-127
 5792 0069 03        		.byte	3
 5793 006a 20        		.byte	32
 5794 006b 00        		.byte	0
 5795 006c 02        		.byte	2
 5796 006d 07        		.byte	7
 5797 006e 05        		.byte	5
 5798 006f 02        		.byte	2
 5799 0070 03        		.byte	3
 5800 0071 20        		.byte	32
 5801 0072 00        		.byte	0
 5802 0073 08        		.byte	8
 5805               	rawhid_hid_report_desc:
 5806 0074 06        		.byte	6
 5807 0075 AB        		.byte	-85
 5808 0076 FF        		.byte	-1
 5809 0077 0A        		.byte	10
 5810 0078 00        		.byte	0
 5811 0079 02        		.byte	2
 5812 007a A1        		.byte	-95
 5813 007b 01        		.byte	1
 5814 007c 75        		.byte	117
 5815 007d 08        		.byte	8
 5816 007e 15        		.byte	21
 5817 007f 00        		.byte	0
 5818 0080 26        		.byte	38
 5819 0081 FF        		.byte	-1
 5820 0082 00        		.byte	0
 5821 0083 95        		.byte	-107
 5822 0084 20        		.byte	32
 5823 0085 09        		.byte	9
 5824 0086 01        		.byte	1
 5825 0087 81        		.byte	-127
 5826 0088 02        		.byte	2
 5827 0089 95        		.byte	-107
 5828 008a 20        		.byte	32
 5829 008b 09        		.byte	9
 5830 008c 02        		.byte	2
 5831 008d 91        		.byte	-111
 5832 008e 02        		.byte	2
 5833 008f C0        		.byte	-64
 5836               	string0:
 5837 0090 04        		.byte	4
 5838 0091 03        		.byte	3
 5839 0092 0904      		.word	1033
 5842               	string1:
 5843 0094 22        		.byte	34
 5844 0095 03        		.byte	3
 5845 0096 5200      		.string	"R"
 5846 0098 7500      		.string	"u"
 5847 009a 6500      		.string	"e"
 5848 009c 6400      		.string	"d"
 5849 009e 6900      		.string	"i"
 5850 00a0 5F00      		.string	"_"
 5851 00a2 4800      		.string	"H"
 5852 00a4 6500      		.string	"e"
 5853 00a6 6900      		.string	"i"
 5854 00a8 6D00      		.string	"m"
 5855 00aa 6C00      		.string	"l"
 5856 00ac 6900      		.string	"i"
 5857 00ae 6300      		.string	"c"
 5858 00b0 6800      		.string	"h"
 5859 00b2 6500      		.string	"e"
 5860 00b4 7200      		.string	"r"
 5861 00b6 00        		.string	""
 5862 00b7 00        		.string	""
 5865               	string2:
 5866 00b8 10        		.byte	16
 5867 00b9 03        		.byte	3
 5868 00ba 4300      		.string	"C"
 5869 00bc 4E00      		.string	"N"
 5870 00be 4300      		.string	"C"
 5871 00c0 5F00      		.string	"_"
 5872 00c2 5500      		.string	"U"
 5873 00c4 5300      		.string	"S"
 5874 00c6 4200      		.string	"B"
 5875 00c8 00        		.string	""
 5876 00c9 00        		.string	""
 6285               	.Letext0:
DEFINED SYMBOLS
                            *ABS*:00000000 TWI_Slave.c
/var/folders/vm/650ssqs08xl63r006s7ds01h0000gp/T//ccOO22om.s:2      *ABS*:0000003f __SREG__
/var/folders/vm/650ssqs08xl63r006s7ds01h0000gp/T//ccOO22om.s:3      *ABS*:0000003e __SP_H__
/var/folders/vm/650ssqs08xl63r006s7ds01h0000gp/T//ccOO22om.s:4      *ABS*:0000003d __SP_L__
/var/folders/vm/650ssqs08xl63r006s7ds01h0000gp/T//ccOO22om.s:5      *ABS*:00000034 __CCP__
/var/folders/vm/650ssqs08xl63r006s7ds01h0000gp/T//ccOO22om.s:6      *ABS*:00000000 __tmp_reg__
/var/folders/vm/650ssqs08xl63r006s7ds01h0000gp/T//ccOO22om.s:7      *ABS*:00000001 __zero_reg__
/var/folders/vm/650ssqs08xl63r006s7ds01h0000gp/T//ccOO22om.s:18     .text.usb_wait_in_ready:00000000 usb_wait_in_ready
/var/folders/vm/650ssqs08xl63r006s7ds01h0000gp/T//ccOO22om.s:38     .text.lcddelay_ms:00000000 lcddelay_ms
/var/folders/vm/650ssqs08xl63r006s7ds01h0000gp/T//ccOO22om.s:76     .text.lcd_backlight:00000000 lcd_backlight
/var/folders/vm/650ssqs08xl63r006s7ds01h0000gp/T//ccOO22om.s:99     .text.lcd_load_byte:00000000 lcd_load_byte
/var/folders/vm/650ssqs08xl63r006s7ds01h0000gp/T//ccOO22om.s:155    .text.lcd_strobe_E:00000000 lcd_strobe_E
/var/folders/vm/650ssqs08xl63r006s7ds01h0000gp/T//ccOO22om.s:186    .text.lcd_send_char:00000000 lcd_send_char
/var/folders/vm/650ssqs08xl63r006s7ds01h0000gp/T//ccOO22om.s:217    .text.lcd_putc:00000000 lcd_putc
/var/folders/vm/650ssqs08xl63r006s7ds01h0000gp/T//ccOO22om.s:238    .text.lcd_puts:00000000 lcd_puts
/var/folders/vm/650ssqs08xl63r006s7ds01h0000gp/T//ccOO22om.s:273    .text.lcd_putint1:00000000 lcd_putint1
/var/folders/vm/650ssqs08xl63r006s7ds01h0000gp/T//ccOO22om.s:314    .text.lcd_putint2:00000000 lcd_putint2
/var/folders/vm/650ssqs08xl63r006s7ds01h0000gp/T//ccOO22om.s:366    .text.lcd_putint16:00000000 lcd_putint16
/var/folders/vm/650ssqs08xl63r006s7ds01h0000gp/T//ccOO22om.s:435    .text.lcd_putint:00000000 lcd_putint
/var/folders/vm/650ssqs08xl63r006s7ds01h0000gp/T//ccOO22om.s:487    .text.lcd_send_cmd:00000000 lcd_send_cmd
/var/folders/vm/650ssqs08xl63r006s7ds01h0000gp/T//ccOO22om.s:518    .text.lcd_initialize:00000000 lcd_initialize
/var/folders/vm/650ssqs08xl63r006s7ds01h0000gp/T//ccOO22om.s:681    .text.lcd_cursor_home:00000000 lcd_cursor_home
/var/folders/vm/650ssqs08xl63r006s7ds01h0000gp/T//ccOO22om.s:701    .text.lcd_move_cursor:00000000 lcd_move_cursor
/var/folders/vm/650ssqs08xl63r006s7ds01h0000gp/T//ccOO22om.s:724    .text.lcd_inc_cursor:00000000 lcd_inc_cursor
/var/folders/vm/650ssqs08xl63r006s7ds01h0000gp/T//ccOO22om.s:757    .text.lcd_dec_cursor:00000000 lcd_dec_cursor
/var/folders/vm/650ssqs08xl63r006s7ds01h0000gp/T//ccOO22om.s:790    .text.lcd_gotoxy:00000000 lcd_gotoxy
/var/folders/vm/650ssqs08xl63r006s7ds01h0000gp/T//ccOO22om.s:821    .text.lcd_cls:00000000 lcd_cls
/var/folders/vm/650ssqs08xl63r006s7ds01h0000gp/T//ccOO22om.s:854    .text.lcd_clr_line:00000000 lcd_clr_line
/var/folders/vm/650ssqs08xl63r006s7ds01h0000gp/T//ccOO22om.s:899    .text.r_uitoa:00000000 r_uitoa
/var/folders/vm/650ssqs08xl63r006s7ds01h0000gp/T//ccOO22om.s:956    .text.r_itoa:00000000 r_itoa
/var/folders/vm/650ssqs08xl63r006s7ds01h0000gp/T//ccOO22om.s:1039   .text.r_itoa16:00000000 r_itoa16
/var/folders/vm/650ssqs08xl63r006s7ds01h0000gp/T//ccOO22om.s:1100   .text.lcd_puthex:00000000 lcd_puthex
/var/folders/vm/650ssqs08xl63r006s7ds01h0000gp/T//ccOO22om.s:1183   .text.lcd_put_frac:00000000 lcd_put_frac
/var/folders/vm/650ssqs08xl63r006s7ds01h0000gp/T//ccOO22om.s:1302   .text.lcd_put_zeit:00000000 lcd_put_zeit
/var/folders/vm/650ssqs08xl63r006s7ds01h0000gp/T//ccOO22om.s:1391   .text.lcd_put_wochentag:00000000 lcd_put_wochentag
/var/folders/vm/650ssqs08xl63r006s7ds01h0000gp/T//ccOO22om.s:5729   .data:0000003c C.246.4412
/var/folders/vm/650ssqs08xl63r006s7ds01h0000gp/T//ccOO22om.s:1448   .text.lcd_put_temperatur:00000000 lcd_put_temperatur
/var/folders/vm/650ssqs08xl63r006s7ds01h0000gp/T//ccOO22om.s:1600   .text.lcd_put_tempbis99:00000000 lcd_put_tempbis99
/var/folders/vm/650ssqs08xl63r006s7ds01h0000gp/T//ccOO22om.s:1728   .text.readKanal16Bit:00000000 readKanal16Bit
/var/folders/vm/650ssqs08xl63r006s7ds01h0000gp/T//ccOO22om.s:1797   .text.initADC:00000000 initADC
/var/folders/vm/650ssqs08xl63r006s7ds01h0000gp/T//ccOO22om.s:1832   .text.readKanal:00000000 readKanal
/var/folders/vm/650ssqs08xl63r006s7ds01h0000gp/T//ccOO22om.s:1885   .text.closeADC:00000000 closeADC
/var/folders/vm/650ssqs08xl63r006s7ds01h0000gp/T//ccOO22om.s:1906   .text.readKanalOrig:00000000 readKanalOrig
/var/folders/vm/650ssqs08xl63r006s7ds01h0000gp/T//ccOO22om.s:1977   .text.usb_init:00000000 usb_init
/var/folders/vm/650ssqs08xl63r006s7ds01h0000gp/T//ccOO22om.s:5665   .bss:000000e7 usb_configuration
/var/folders/vm/650ssqs08xl63r006s7ds01h0000gp/T//ccOO22om.s:2022   .text.usb_configured:00000000 usb_configured
/var/folders/vm/650ssqs08xl63r006s7ds01h0000gp/T//ccOO22om.s:2039   .text.usb_rawhid_recv:00000000 usb_rawhid_recv
/var/folders/vm/650ssqs08xl63r006s7ds01h0000gp/T//ccOO22om.s:5698   .bss:000000e8 rx_timeout_count
/var/folders/vm/650ssqs08xl63r006s7ds01h0000gp/T//ccOO22om.s:2329   .text.usb_rawhid_send:00000000 usb_rawhid_send
/var/folders/vm/650ssqs08xl63r006s7ds01h0000gp/T//ccOO22om.s:5710   .bss:000000e9 tx_timeout_count
/var/folders/vm/650ssqs08xl63r006s7ds01h0000gp/T//ccOO22om.s:2619   .text.__vector_10:00000000 __vector_10
/var/folders/vm/650ssqs08xl63r006s7ds01h0000gp/T//ccOO22om.s:2702   .text.__vector_11:00000000 __vector_11
/var/folders/vm/650ssqs08xl63r006s7ds01h0000gp/T//ccOO22om.s:5669   .progmem.data:00000000 descriptor_list
/var/folders/vm/650ssqs08xl63r006s7ds01h0000gp/T//ccOO22om.s:5701   .progmem.data:00000031 endpoint_config_table
/var/folders/vm/650ssqs08xl63r006s7ds01h0000gp/T//ccOO22om.s:3353   .text.slaveinit:00000000 slaveinit
/var/folders/vm/650ssqs08xl63r006s7ds01h0000gp/T//ccOO22om.s:3454   .text.delay_ms:00000000 delay_ms
/var/folders/vm/650ssqs08xl63r006s7ds01h0000gp/T//ccOO22om.s:3492   .text.timer0:00000000 timer0
/var/folders/vm/650ssqs08xl63r006s7ds01h0000gp/T//ccOO22om.s:3527   .text.__vector_15:00000000 __vector_15
/var/folders/vm/650ssqs08xl63r006s7ds01h0000gp/T//ccOO22om.s:5645   .bss:00000016 timer2Counter
/var/folders/vm/650ssqs08xl63r006s7ds01h0000gp/T//ccOO22om.s:5575   .bss:00000006 CounterA
/var/folders/vm/650ssqs08xl63r006s7ds01h0000gp/T//ccOO22om.s:5581   .bss:00000008 CounterB
/var/folders/vm/650ssqs08xl63r006s7ds01h0000gp/T//ccOO22om.s:5587   .bss:0000000a CounterC
/var/folders/vm/650ssqs08xl63r006s7ds01h0000gp/T//ccOO22om.s:5593   .bss:0000000c CounterD
/var/folders/vm/650ssqs08xl63r006s7ds01h0000gp/T//ccOO22om.s:5569   .bss:00000005 PWM
/var/folders/vm/650ssqs08xl63r006s7ds01h0000gp/T//ccOO22om.s:5663   .bss:000000e5 pwmposition
/var/folders/vm/650ssqs08xl63r006s7ds01h0000gp/T//ccOO22om.s:3611   .text.AbschnittLaden:00000000 AbschnittLaden
/var/folders/vm/650ssqs08xl63r006s7ds01h0000gp/T//ccOO22om.s:5664   .bss:000000e6 richtung
/var/folders/vm/650ssqs08xl63r006s7ds01h0000gp/T//ccOO22om.s:5621   .bss:0000000e StepCounterA
/var/folders/vm/650ssqs08xl63r006s7ds01h0000gp/T//ccOO22om.s:5599   .data:0000001d DelayA
/var/folders/vm/650ssqs08xl63r006s7ds01h0000gp/T//ccOO22om.s:5627   .bss:00000010 StepCounterB
/var/folders/vm/650ssqs08xl63r006s7ds01h0000gp/T//ccOO22om.s:5604   .data:0000001f DelayB
/var/folders/vm/650ssqs08xl63r006s7ds01h0000gp/T//ccOO22om.s:5633   .bss:00000012 StepCounterC
/var/folders/vm/650ssqs08xl63r006s7ds01h0000gp/T//ccOO22om.s:5609   .data:00000021 DelayC
/var/folders/vm/650ssqs08xl63r006s7ds01h0000gp/T//ccOO22om.s:5639   .bss:00000014 StepCounterD
/var/folders/vm/650ssqs08xl63r006s7ds01h0000gp/T//ccOO22om.s:5614   .data:00000023 DelayD
/var/folders/vm/650ssqs08xl63r006s7ds01h0000gp/T//ccOO22om.s:5651   .bss:00000059 motorstatus
/var/folders/vm/650ssqs08xl63r006s7ds01h0000gp/T//ccOO22om.s:4008   .text.AnschlagVonMotor:00000000 AnschlagVonMotor
/var/folders/vm/650ssqs08xl63r006s7ds01h0000gp/T//ccOO22om.s:5656   .bss:000000e3 anschlagstatus
/var/folders/vm/650ssqs08xl63r006s7ds01h0000gp/T//ccOO22om.s:5662   .bss:000000e4 cncstatus
/var/folders/vm/650ssqs08xl63r006s7ds01h0000gp/T//ccOO22om.s:5649   .bss:00000038 sendbuffer
/var/folders/vm/650ssqs08xl63r006s7ds01h0000gp/T//ccOO22om.s:5653   .bss:0000005c ladeposition
/var/folders/vm/650ssqs08xl63r006s7ds01h0000gp/T//ccOO22om.s:5652   .bss:0000005a abschnittnummer
/var/folders/vm/650ssqs08xl63r006s7ds01h0000gp/T//ccOO22om.s:4288   .text.StepEndVonMotor:00000000 StepEndVonMotor
/var/folders/vm/650ssqs08xl63r006s7ds01h0000gp/T//ccOO22om.s:5660   .data:00000025 endposition
/var/folders/vm/650ssqs08xl63r006s7ds01h0000gp/T//ccOO22om.s:5650   .bss:00000058 ringbufferstatus
/var/folders/vm/650ssqs08xl63r006s7ds01h0000gp/T//ccOO22om.s:5655   .bss:0000005f CNCDaten
/var/folders/vm/650ssqs08xl63r006s7ds01h0000gp/T//ccOO22om.s:5654   .bss:0000005d AbschnittCounter
/var/folders/vm/650ssqs08xl63r006s7ds01h0000gp/T//ccOO22om.s:4541   .text.main:00000000 main
                             .bss:00000018 buffer
/var/folders/vm/650ssqs08xl63r006s7ds01h0000gp/T//ccOO22om.s:5557   .bss:00000003 usbstatus
/var/folders/vm/650ssqs08xl63r006s7ds01h0000gp/T//ccOO22om.s:5532   .bss:00000000 rxdata
/var/folders/vm/650ssqs08xl63r006s7ds01h0000gp/T//ccOO22om.s:5538   .bss:00000001 do_output
/var/folders/vm/650ssqs08xl63r006s7ds01h0000gp/T//ccOO22om.s:5544   .bss:00000002 liniencounter
/var/folders/vm/650ssqs08xl63r006s7ds01h0000gp/T//ccOO22om.s:5550   .data:0000001c timer0startwert
/var/folders/vm/650ssqs08xl63r006s7ds01h0000gp/T//ccOO22om.s:5563   .bss:00000004 status
                            *COM*:00000003 ADCWert16
                            *COM*:00000001 buffer_adr
/var/folders/vm/650ssqs08xl63r006s7ds01h0000gp/T//ccOO22om.s:5740   .progmem.data:00000039 device_descriptor
/var/folders/vm/650ssqs08xl63r006s7ds01h0000gp/T//ccOO22om.s:5761   .progmem.data:0000004b config1_descriptor
/var/folders/vm/650ssqs08xl63r006s7ds01h0000gp/T//ccOO22om.s:5805   .progmem.data:00000074 rawhid_hid_report_desc
/var/folders/vm/650ssqs08xl63r006s7ds01h0000gp/T//ccOO22om.s:5836   .progmem.data:00000090 string0
/var/folders/vm/650ssqs08xl63r006s7ds01h0000gp/T//ccOO22om.s:5842   .progmem.data:00000094 string1
/var/folders/vm/650ssqs08xl63r006s7ds01h0000gp/T//ccOO22om.s:5865   .progmem.data:000000b8 string2

UNDEFINED SYMBOLS
__udivmodqi4
__udivmodhi4
__udivmodsi4
__divmodsi4
__divmodhi4
__do_copy_data
__do_clear_bss
